
fir.elf:     file format elf32-littleriscv


Disassembly of section .memory:

00000000 <boot>:
       0:	10000537          	lui	a0,0x10000
       4:	04200593          	li	a1,66
       8:	04f00613          	li	a2,79
       c:	04f00693          	li	a3,79
      10:	05400713          	li	a4,84
      14:	00a00793          	li	a5,10
      18:	00b52023          	sw	a1,0(a0) # 10000000 <end+0xffe5a24>
      1c:	00c52023          	sw	a2,0(a0)
      20:	00d52023          	sw	a3,0(a0)
      24:	00e52023          	sw	a4,0(a0)
      28:	00f52023          	sw	a5,0(a0)
      2c:	00010137          	lui	sp,0x10
      30:	7d10f0ef          	jal	ra,10000 <_start>
	...

00010000 <_start>:
   10000:	10000537          	lui	a0,0x10000
   10004:	05300593          	li	a1,83
   10008:	05400613          	li	a2,84
   1000c:	04100693          	li	a3,65
   10010:	05200713          	li	a4,82
   10014:	00a00793          	li	a5,10
   10018:	00b52023          	sw	a1,0(a0) # 10000000 <end+0xffe5a24>
   1001c:	00c52023          	sw	a2,0(a0)
   10020:	00d52023          	sw	a3,0(a0)
   10024:	00e52023          	sw	a4,0(a0)
   10028:	00c52023          	sw	a2,0(a0)
   1002c:	00f52023          	sw	a5,0(a0)
   10030:	00000537          	lui	a0,0x0
   10034:	00000517          	auipc	a0,0x0
   10038:	00051513          	slli	a0,a0,0x0
   1003c:	01f51513          	slli	a0,a0,0x1f
   10040:	00000593          	li	a1,0
   10044:	00b51533          	sll	a0,a0,a1
   10048:	01f00593          	li	a1,31
   1004c:	00b51533          	sll	a0,a0,a1
   10050:	00010137          	lui	sp,0x10
   10054:	424000ef          	jal	ra,10478 <main>
   10058:	10000537          	lui	a0,0x10000
   1005c:	04400593          	li	a1,68
   10060:	04f00613          	li	a2,79
   10064:	04e00693          	li	a3,78
   10068:	04500713          	li	a4,69
   1006c:	00a00793          	li	a5,10
   10070:	00b52023          	sw	a1,0(a0) # 10000000 <end+0xffe5a24>
   10074:	00c52023          	sw	a2,0(a0)
   10078:	00d52023          	sw	a3,0(a0)
   1007c:	00e52023          	sw	a4,0(a0)
   10080:	00f52023          	sw	a5,0(a0)
   10084:	00450513          	addi	a0,a0,4
   10088:	0ad00593          	li	a1,173
   1008c:	00b52023          	sw	a1,0(a0)
   10090:	00100073          	ebreak

00010094 <time>:
   10094:	c0002573          	rdcycle	a0
   10098:	00008067          	ret

0001009c <insn>:
   1009c:	c0202573          	rdinstret	a0
   100a0:	00008067          	ret

000100a4 <malloc>:
   100a4:	0001a6b7          	lui	a3,0x1a
   100a8:	1d86a783          	lw	a5,472(a3) # 1a1d8 <heap_memory_used>
   100ac:	00a78733          	add	a4,a5,a0
   100b0:	0001a537          	lui	a0,0x1a
   100b4:	1ce6ac23          	sw	a4,472(a3)
   100b8:	1dc50513          	addi	a0,a0,476 # 1a1dc <heap_memory>
   100bc:	40000693          	li	a3,1024
   100c0:	00a78533          	add	a0,a5,a0
   100c4:	00e6d463          	bge	a3,a4,100cc <malloc+0x28>
   100c8:	00100073          	ebreak
   100cc:	00008067          	ret

000100d0 <memcpy>:
   100d0:	fff60693          	addi	a3,a2,-1
   100d4:	0a060c63          	beqz	a2,1018c <memcpy+0xbc>
   100d8:	00450793          	addi	a5,a0,4
   100dc:	00458313          	addi	t1,a1,4
   100e0:	00f5b7b3          	sltu	a5,a1,a5
   100e4:	00653333          	sltu	t1,a0,t1
   100e8:	0017c793          	xori	a5,a5,1
   100ec:	00134313          	xori	t1,t1,1
   100f0:	0096b713          	sltiu	a4,a3,9
   100f4:	0067e7b3          	or	a5,a5,t1
   100f8:	00174713          	xori	a4,a4,1
   100fc:	00f777b3          	and	a5,a4,a5
   10100:	06078863          	beqz	a5,10170 <memcpy+0xa0>
   10104:	00a5e7b3          	or	a5,a1,a0
   10108:	0037f793          	andi	a5,a5,3
   1010c:	06079263          	bnez	a5,10170 <memcpy+0xa0>
   10110:	ffc67293          	andi	t0,a2,-4
   10114:	00058793          	mv	a5,a1
   10118:	00050713          	mv	a4,a0
   1011c:	00b282b3          	add	t0,t0,a1
   10120:	0007a303          	lw	t1,0(a5)
   10124:	00470713          	addi	a4,a4,4
   10128:	00478793          	addi	a5,a5,4
   1012c:	fe672e23          	sw	t1,-4(a4)
   10130:	fe5798e3          	bne	a5,t0,10120 <memcpy+0x50>
   10134:	ffc67793          	andi	a5,a2,-4
   10138:	00f50733          	add	a4,a0,a5
   1013c:	00f585b3          	add	a1,a1,a5
   10140:	40f686b3          	sub	a3,a3,a5
   10144:	04f60463          	beq	a2,a5,1018c <memcpy+0xbc>
   10148:	0005c783          	lbu	a5,0(a1)
   1014c:	00f70023          	sb	a5,0(a4)
   10150:	02068e63          	beqz	a3,1018c <memcpy+0xbc>
   10154:	0015c603          	lbu	a2,1(a1)
   10158:	00100793          	li	a5,1
   1015c:	00c700a3          	sb	a2,1(a4)
   10160:	02f68663          	beq	a3,a5,1018c <memcpy+0xbc>
   10164:	0025c783          	lbu	a5,2(a1)
   10168:	00f70123          	sb	a5,2(a4)
   1016c:	00008067          	ret
   10170:	00c50633          	add	a2,a0,a2
   10174:	00050793          	mv	a5,a0
   10178:	00158593          	addi	a1,a1,1
   1017c:	fff5c703          	lbu	a4,-1(a1)
   10180:	00178793          	addi	a5,a5,1
   10184:	fee78fa3          	sb	a4,-1(a5)
   10188:	fec798e3          	bne	a5,a2,10178 <memcpy+0xa8>
   1018c:	00008067          	ret

00010190 <strcpy>:
   10190:	00050793          	mv	a5,a0
   10194:	0180006f          	j	101ac <strcpy+0x1c>
   10198:	00158593          	addi	a1,a1,1
   1019c:	fff5c703          	lbu	a4,-1(a1)
   101a0:	00178793          	addi	a5,a5,1
   101a4:	fee78fa3          	sb	a4,-1(a5)
   101a8:	08070463          	beqz	a4,10230 <strcpy+0xa0>
   101ac:	00f5e733          	or	a4,a1,a5
   101b0:	00377713          	andi	a4,a4,3
   101b4:	fe0712e3          	bnez	a4,10198 <strcpy+0x8>
   101b8:	0005a683          	lw	a3,0(a1)
   101bc:	feff02b7          	lui	t0,0xfeff0
   101c0:	eff28293          	addi	t0,t0,-257 # fefefeff <end+0xfefd5923>
   101c4:	00568733          	add	a4,a3,t0
   101c8:	fff6c613          	not	a2,a3
   101cc:	80808337          	lui	t1,0x80808
   101d0:	08030313          	addi	t1,t1,128 # 80808080 <end+0x807edaa4>
   101d4:	00c77733          	and	a4,a4,a2
   101d8:	00677733          	and	a4,a4,t1
   101dc:	02071463          	bnez	a4,10204 <strcpy+0x74>
   101e0:	00d7a023          	sw	a3,0(a5)
   101e4:	00458593          	addi	a1,a1,4
   101e8:	0005a683          	lw	a3,0(a1)
   101ec:	00478793          	addi	a5,a5,4
   101f0:	00568733          	add	a4,a3,t0
   101f4:	fff6c613          	not	a2,a3
   101f8:	00c77733          	and	a4,a4,a2
   101fc:	00677733          	and	a4,a4,t1
   10200:	fe0700e3          	beqz	a4,101e0 <strcpy+0x50>
   10204:	00d78023          	sb	a3,0(a5)
   10208:	0ff6f713          	andi	a4,a3,255
   1020c:	02070263          	beqz	a4,10230 <strcpy+0xa0>
   10210:	0086d713          	srli	a4,a3,0x8
   10214:	00e780a3          	sb	a4,1(a5)
   10218:	0ff77713          	andi	a4,a4,255
   1021c:	00070a63          	beqz	a4,10230 <strcpy+0xa0>
   10220:	0106d713          	srli	a4,a3,0x10
   10224:	00e78123          	sb	a4,2(a5)
   10228:	0ff77713          	andi	a4,a4,255
   1022c:	00071463          	bnez	a4,10234 <strcpy+0xa4>
   10230:	00008067          	ret
   10234:	0186d693          	srli	a3,a3,0x18
   10238:	00d781a3          	sb	a3,3(a5)
   1023c:	00008067          	ret

00010240 <strcmp>:
   10240:	01c0006f          	j	1025c <strcmp+0x1c>
   10244:	00150513          	addi	a0,a0,1
   10248:	00158593          	addi	a1,a1,1
   1024c:	fff54783          	lbu	a5,-1(a0)
   10250:	fff5c703          	lbu	a4,-1(a1)
   10254:	0ce79a63          	bne	a5,a4,10328 <strcmp+0xe8>
   10258:	0c078463          	beqz	a5,10320 <strcmp+0xe0>
   1025c:	00a5e7b3          	or	a5,a1,a0
   10260:	0037f793          	andi	a5,a5,3
   10264:	fe0790e3          	bnez	a5,10244 <strcmp+0x4>
   10268:	00052703          	lw	a4,0(a0)
   1026c:	0005a683          	lw	a3,0(a1)
   10270:	04e69a63          	bne	a3,a4,102c4 <strcmp+0x84>
   10274:	feff0337          	lui	t1,0xfeff0
   10278:	eff30313          	addi	t1,t1,-257 # fefefeff <end+0xfefd5923>
   1027c:	006687b3          	add	a5,a3,t1
   10280:	80808637          	lui	a2,0x80808
   10284:	fff6c693          	not	a3,a3
   10288:	00d7f7b3          	and	a5,a5,a3
   1028c:	08060613          	addi	a2,a2,128 # 80808080 <end+0x807edaa4>
   10290:	00c7f7b3          	and	a5,a5,a2
   10294:	00078663          	beqz	a5,102a0 <strcmp+0x60>
   10298:	0880006f          	j	10320 <strcmp+0xe0>
   1029c:	08079263          	bnez	a5,10320 <strcmp+0xe0>
   102a0:	00450513          	addi	a0,a0,4
   102a4:	00052703          	lw	a4,0(a0)
   102a8:	00458593          	addi	a1,a1,4
   102ac:	0005a683          	lw	a3,0(a1)
   102b0:	006707b3          	add	a5,a4,t1
   102b4:	fff74293          	not	t0,a4
   102b8:	0057f7b3          	and	a5,a5,t0
   102bc:	00c7f7b3          	and	a5,a5,a2
   102c0:	fcd70ee3          	beq	a4,a3,1029c <strcmp+0x5c>
   102c4:	0ff77793          	andi	a5,a4,255
   102c8:	0ff6f613          	andi	a2,a3,255
   102cc:	06c79663          	bne	a5,a2,10338 <strcmp+0xf8>
   102d0:	00000513          	li	a0,0
   102d4:	04078463          	beqz	a5,1031c <strcmp+0xdc>
   102d8:	00875793          	srli	a5,a4,0x8
   102dc:	0086d613          	srli	a2,a3,0x8
   102e0:	0ff7f793          	andi	a5,a5,255
   102e4:	0ff67613          	andi	a2,a2,255
   102e8:	04c79863          	bne	a5,a2,10338 <strcmp+0xf8>
   102ec:	02078863          	beqz	a5,1031c <strcmp+0xdc>
   102f0:	01075793          	srli	a5,a4,0x10
   102f4:	0106d613          	srli	a2,a3,0x10
   102f8:	0ff7f793          	andi	a5,a5,255
   102fc:	0ff67613          	andi	a2,a2,255
   10300:	02c79c63          	bne	a5,a2,10338 <strcmp+0xf8>
   10304:	00078c63          	beqz	a5,1031c <strcmp+0xdc>
   10308:	01875713          	srli	a4,a4,0x18
   1030c:	0186d693          	srli	a3,a3,0x18
   10310:	00d70663          	beq	a4,a3,1031c <strcmp+0xdc>
   10314:	00100513          	li	a0,1
   10318:	02d76463          	bltu	a4,a3,10340 <strcmp+0x100>
   1031c:	00008067          	ret
   10320:	00000513          	li	a0,0
   10324:	00008067          	ret
   10328:	fff00513          	li	a0,-1
   1032c:	fee7e8e3          	bltu	a5,a4,1031c <strcmp+0xdc>
   10330:	00100513          	li	a0,1
   10334:	00008067          	ret
   10338:	00100513          	li	a0,1
   1033c:	fec7f0e3          	bgeu	a5,a2,1031c <strcmp+0xdc>
   10340:	fff00513          	li	a0,-1
   10344:	00008067          	ret

00010348 <memset>:
   10348:	10060663          	beqz	a2,10454 <memset+0x10c>
   1034c:	40a007b3          	neg	a5,a0
   10350:	fff60293          	addi	t0,a2,-1
   10354:	00500713          	li	a4,5
   10358:	0ff5f593          	andi	a1,a1,255
   1035c:	0037f793          	andi	a5,a5,3
   10360:	0c577a63          	bgeu	a4,t0,10434 <memset+0xec>
   10364:	ffc10113          	addi	sp,sp,-4 # fffc <boot+0xfffc>
   10368:	00812023          	sw	s0,0(sp)
   1036c:	00050393          	mv	t2,a0
   10370:	02078c63          	beqz	a5,103a8 <memset+0x60>
   10374:	00b50023          	sb	a1,0(a0)
   10378:	00100713          	li	a4,1
   1037c:	00150393          	addi	t2,a0,1
   10380:	ffe60293          	addi	t0,a2,-2
   10384:	02e78263          	beq	a5,a4,103a8 <memset+0x60>
   10388:	00b500a3          	sb	a1,1(a0)
   1038c:	00300713          	li	a4,3
   10390:	00250393          	addi	t2,a0,2
   10394:	ffd60293          	addi	t0,a2,-3
   10398:	00e79863          	bne	a5,a4,103a8 <memset+0x60>
   1039c:	00350393          	addi	t2,a0,3
   103a0:	00b50123          	sb	a1,2(a0)
   103a4:	ffc60293          	addi	t0,a2,-4
   103a8:	00859693          	slli	a3,a1,0x8
   103ac:	40f60633          	sub	a2,a2,a5
   103b0:	00d5e333          	or	t1,a1,a3
   103b4:	01059413          	slli	s0,a1,0x10
   103b8:	008366b3          	or	a3,t1,s0
   103bc:	01859713          	slli	a4,a1,0x18
   103c0:	00f507b3          	add	a5,a0,a5
   103c4:	ffc67313          	andi	t1,a2,-4
   103c8:	00e6e733          	or	a4,a3,a4
   103cc:	00f306b3          	add	a3,t1,a5
   103d0:	00e7a023          	sw	a4,0(a5)
   103d4:	00478793          	addi	a5,a5,4
   103d8:	fed79ce3          	bne	a5,a3,103d0 <memset+0x88>
   103dc:	ffc67793          	andi	a5,a2,-4
   103e0:	00f383b3          	add	t2,t2,a5
   103e4:	40f282b3          	sub	t0,t0,a5
   103e8:	04f60063          	beq	a2,a5,10428 <memset+0xe0>
   103ec:	00b38023          	sb	a1,0(t2)
   103f0:	02028c63          	beqz	t0,10428 <memset+0xe0>
   103f4:	00b380a3          	sb	a1,1(t2)
   103f8:	00100793          	li	a5,1
   103fc:	02f28663          	beq	t0,a5,10428 <memset+0xe0>
   10400:	00b38123          	sb	a1,2(t2)
   10404:	00200793          	li	a5,2
   10408:	02f28063          	beq	t0,a5,10428 <memset+0xe0>
   1040c:	00b381a3          	sb	a1,3(t2)
   10410:	00300793          	li	a5,3
   10414:	00f28a63          	beq	t0,a5,10428 <memset+0xe0>
   10418:	00b38223          	sb	a1,4(t2)
   1041c:	00400793          	li	a5,4
   10420:	00f28463          	beq	t0,a5,10428 <memset+0xe0>
   10424:	00b382a3          	sb	a1,5(t2)
   10428:	00012403          	lw	s0,0(sp)
   1042c:	00410113          	addi	sp,sp,4
   10430:	00008067          	ret
   10434:	00b50023          	sb	a1,0(a0)
   10438:	00028e63          	beqz	t0,10454 <memset+0x10c>
   1043c:	00b500a3          	sb	a1,1(a0)
   10440:	00100793          	li	a5,1
   10444:	00f28863          	beq	t0,a5,10454 <memset+0x10c>
   10448:	00b50123          	sb	a1,2(a0)
   1044c:	00200793          	li	a5,2
   10450:	00f29463          	bne	t0,a5,10458 <memset+0x110>
   10454:	00008067          	ret
   10458:	00b501a3          	sb	a1,3(a0)
   1045c:	00300793          	li	a5,3
   10460:	fef28ae3          	beq	t0,a5,10454 <memset+0x10c>
   10464:	00b50223          	sb	a1,4(a0)
   10468:	00400793          	li	a5,4
   1046c:	fef284e3          	beq	t0,a5,10454 <memset+0x10c>
   10470:	00b502a3          	sb	a1,5(a0)
   10474:	00008067          	ret

00010478 <main>:
   10478:	ff410113          	addi	sp,sp,-12
   1047c:	00001637          	lui	a2,0x1
   10480:	00000593          	li	a1,0
   10484:	19000513          	li	a0,400
   10488:	00112423          	sw	ra,8(sp)
   1048c:	00812223          	sw	s0,4(sp)
   10490:	00912023          	sw	s1,0(sp)
   10494:	eb5ff0ef          	jal	ra,10348 <memset>
   10498:	00010337          	lui	t1,0x10
   1049c:	000183b7          	lui	t2,0x18
   104a0:	0001a537          	lui	a0,0x1a
   104a4:	000012b7          	lui	t0,0x1
   104a8:	64430313          	addi	t1,t1,1604 # 10644 <S>
   104ac:	19000593          	li	a1,400
   104b0:	64438393          	addi	t2,t2,1604 # 18644 <H>
   104b4:	1c450513          	addi	a0,a0,452 # 1a1c4 <H+0x1b80>
   104b8:	00100613          	li	a2,1
   104bc:	19028293          	addi	t0,t0,400 # 1190 <boot+0x1190>
   104c0:	0005a403          	lw	s0,0(a1)
   104c4:	00038713          	mv	a4,t2
   104c8:	00030693          	mv	a3,t1
   104cc:	0a80006f          	j	10574 <main+0xfc>
   104d0:	00072783          	lw	a5,0(a4)
   104d4:	40f407b3          	sub	a5,s0,a5
   104d8:	00f5a023          	sw	a5,0(a1)
   104dc:	0046a403          	lw	s0,4(a3)
   104e0:	00472483          	lw	s1,4(a4)
   104e4:	0ac40863          	beq	s0,a2,10594 <main+0x11c>
   104e8:	409787b3          	sub	a5,a5,s1
   104ec:	00f5a023          	sw	a5,0(a1)
   104f0:	0086a403          	lw	s0,8(a3)
   104f4:	00872483          	lw	s1,8(a4)
   104f8:	0ac40863          	beq	s0,a2,105a8 <main+0x130>
   104fc:	409787b3          	sub	a5,a5,s1
   10500:	00f5a023          	sw	a5,0(a1)
   10504:	00c6a403          	lw	s0,12(a3)
   10508:	00c72483          	lw	s1,12(a4)
   1050c:	0ac40863          	beq	s0,a2,105bc <main+0x144>
   10510:	409787b3          	sub	a5,a5,s1
   10514:	00f5a023          	sw	a5,0(a1)
   10518:	0106a403          	lw	s0,16(a3)
   1051c:	01072483          	lw	s1,16(a4)
   10520:	0ac40863          	beq	s0,a2,105d0 <main+0x158>
   10524:	409787b3          	sub	a5,a5,s1
   10528:	00f5a023          	sw	a5,0(a1)
   1052c:	0146a403          	lw	s0,20(a3)
   10530:	01472483          	lw	s1,20(a4)
   10534:	0ac40863          	beq	s0,a2,105e4 <main+0x16c>
   10538:	409787b3          	sub	a5,a5,s1
   1053c:	00f5a023          	sw	a5,0(a1)
   10540:	0186a403          	lw	s0,24(a3)
   10544:	01872483          	lw	s1,24(a4)
   10548:	0ac40863          	beq	s0,a2,105f8 <main+0x180>
   1054c:	409787b3          	sub	a5,a5,s1
   10550:	00f5a023          	sw	a5,0(a1)
   10554:	01c6a483          	lw	s1,28(a3)
   10558:	01c72403          	lw	s0,28(a4)
   1055c:	0ac48863          	beq	s1,a2,1060c <main+0x194>
   10560:	40878433          	sub	s0,a5,s0
   10564:	0085a023          	sw	s0,0(a1)
   10568:	02070713          	addi	a4,a4,32
   1056c:	02068693          	addi	a3,a3,32
   10570:	0aa70863          	beq	a4,a0,10620 <main+0x1a8>
   10574:	0006a783          	lw	a5,0(a3)
   10578:	f4c79ce3          	bne	a5,a2,104d0 <main+0x58>
   1057c:	00072783          	lw	a5,0(a4)
   10580:	00f407b3          	add	a5,s0,a5
   10584:	00f5a023          	sw	a5,0(a1)
   10588:	0046a403          	lw	s0,4(a3)
   1058c:	00472483          	lw	s1,4(a4)
   10590:	f4c41ce3          	bne	s0,a2,104e8 <main+0x70>
   10594:	009787b3          	add	a5,a5,s1
   10598:	00f5a023          	sw	a5,0(a1)
   1059c:	0086a403          	lw	s0,8(a3)
   105a0:	00872483          	lw	s1,8(a4)
   105a4:	f4c41ce3          	bne	s0,a2,104fc <main+0x84>
   105a8:	009787b3          	add	a5,a5,s1
   105ac:	00f5a023          	sw	a5,0(a1)
   105b0:	00c6a403          	lw	s0,12(a3)
   105b4:	00c72483          	lw	s1,12(a4)
   105b8:	f4c41ce3          	bne	s0,a2,10510 <main+0x98>
   105bc:	009787b3          	add	a5,a5,s1
   105c0:	00f5a023          	sw	a5,0(a1)
   105c4:	0106a403          	lw	s0,16(a3)
   105c8:	01072483          	lw	s1,16(a4)
   105cc:	f4c41ce3          	bne	s0,a2,10524 <main+0xac>
   105d0:	009787b3          	add	a5,a5,s1
   105d4:	00f5a023          	sw	a5,0(a1)
   105d8:	0146a403          	lw	s0,20(a3)
   105dc:	01472483          	lw	s1,20(a4)
   105e0:	f4c41ce3          	bne	s0,a2,10538 <main+0xc0>
   105e4:	009787b3          	add	a5,a5,s1
   105e8:	00f5a023          	sw	a5,0(a1)
   105ec:	0186a403          	lw	s0,24(a3)
   105f0:	01872483          	lw	s1,24(a4)
   105f4:	f4c41ce3          	bne	s0,a2,1054c <main+0xd4>
   105f8:	009787b3          	add	a5,a5,s1
   105fc:	00f5a023          	sw	a5,0(a1)
   10600:	01c6a483          	lw	s1,28(a3)
   10604:	01c72403          	lw	s0,28(a4)
   10608:	f4c49ce3          	bne	s1,a2,10560 <main+0xe8>
   1060c:	00878433          	add	s0,a5,s0
   10610:	0085a023          	sw	s0,0(a1)
   10614:	02070713          	addi	a4,a4,32
   10618:	02068693          	addi	a3,a3,32
   1061c:	f4a71ce3          	bne	a4,a0,10574 <main+0xfc>
   10620:	00458593          	addi	a1,a1,4
   10624:	02030313          	addi	t1,t1,32
   10628:	e8559ce3          	bne	a1,t0,104c0 <main+0x48>
   1062c:	00812083          	lw	ra,8(sp)
   10630:	00412403          	lw	s0,4(sp)
   10634:	19002503          	lw	a0,400(zero) # 190 <boot+0x190>
   10638:	00012483          	lw	s1,0(sp)
   1063c:	00c10113          	addi	sp,sp,12
   10640:	00008067          	ret

00010644 <S>:
	...
   10664:	00000001 00000001 00000000 00000000     ................
	...
   10684:	00000001 00000000 00000001 00000001     ................
   10694:	00000001 00000000 00000000 00000000     ................
   106a4:	00000001 00000001 00000000 00000000     ................
   106b4:	00000000 00000001 00000001 00000001     ................
   106c4:	00000001 00000001 00000001 00000001     ................
	...
   106dc:	00000001 00000001 00000000 00000000     ................
	...
   106f4:	00000001 00000001 00000000 00000000     ................
   10704:	00000001 00000001 00000001 00000001     ................
   10714:	00000001 00000000 00000001 00000001     ................
   10724:	00000001 00000001 00000001 00000001     ................
   10734:	00000000 00000001 00000000 00000000     ................
   10744:	00000001 00000001 00000000 00000000     ................
   10754:	00000001 00000000 00000001 00000000     ................
   10764:	00000001 00000000 00000001 00000001     ................
   10774:	00000000 00000001 00000000 00000001     ................
   10784:	00000001 00000001 00000000 00000000     ................
	...
   1079c:	00000001 00000000 00000001 00000000     ................
   107ac:	00000001 00000001 00000001 00000001     ................
   107bc:	00000000 00000001 00000000 00000001     ................
	...
   107e4:	00000001 00000001 00000001 00000001     ................
   107f4:	00000001 00000001 00000001 00000001     ................
   10804:	00000001 00000000 00000001 00000000     ................
	...
   1081c:	00000001 00000000 00000001 00000001     ................
   1082c:	00000000 00000001 00000001 00000001     ................
   1083c:	00000000 00000001 00000001 00000001     ................
   1084c:	00000001 00000000 00000001 00000001     ................
   1085c:	00000001 00000000 00000001 00000000     ................
   1086c:	00000000 00000001 00000000 00000000     ................
   1087c:	00000000 00000001 00000000 00000001     ................
   1088c:	00000001 00000001 00000001 00000001     ................
   1089c:	00000001 00000000 00000001 00000001     ................
   108ac:	00000001 00000000 00000000 00000000     ................
   108bc:	00000000 00000001 00000001 00000001     ................
   108cc:	00000000 00000001 00000001 00000001     ................
   108dc:	00000001 00000000 00000001 00000000     ................
   108ec:	00000001 00000000 00000000 00000000     ................
	...
   10904:	00000001 00000001 00000000 00000001     ................
   10914:	00000001 00000001 00000001 00000001     ................
   10924:	00000001 00000001 00000001 00000001     ................
   10934:	00000001 00000001 00000000 00000000     ................
   10944:	00000001 00000000 00000001 00000000     ................
	...
   1095c:	00000001 00000001 00000001 00000001     ................
   1096c:	00000000 00000001 00000001 00000001     ................
	...
   1098c:	00000001 00000000 00000000 00000000     ................
   1099c:	00000000 00000001 00000001 00000001     ................
   109ac:	00000001 00000001 00000001 00000000     ................
   109bc:	00000001 00000000 00000001 00000001     ................
	...
   109d8:	00000001 00000001 00000001 00000001     ................
   109e8:	00000001 00000001 00000001 00000001     ................
   109f8:	00000001 00000000 00000000 00000001     ................
   10a08:	00000000 00000001 00000001 00000001     ................
   10a18:	00000000 00000001 00000001 00000001     ................
   10a28:	00000001 00000000 00000000 00000000     ................
   10a38:	00000001 00000000 00000000 00000001     ................
   10a48:	00000001 00000001 00000001 00000001     ................
   10a58:	00000000 00000001 00000001 00000000     ................
	...
   10a78:	00000001 00000000 00000000 00000001     ................
   10a88:	00000001 00000001 00000001 00000001     ................
	...
   10aa4:	00000001 00000001 00000001 00000000     ................
	...
   10abc:	00000001 00000001 00000001 00000001     ................
   10acc:	00000000 00000001 00000001 00000001     ................
   10adc:	00000000 00000001 00000001 00000000     ................
   10aec:	00000001 00000000 00000000 00000000     ................
   10afc:	00000001 00000000 00000001 00000001     ................
   10b0c:	00000000 00000001 00000001 00000001     ................
   10b1c:	00000001 00000001 00000001 00000001     ................
   10b2c:	00000001 00000000 00000000 00000000     ................
	...
   10b44:	00000001 00000000 00000001 00000001     ................
   10b54:	00000001 00000001 00000001 00000001     ................
   10b64:	00000000 00000001 00000000 00000000     ................
   10b74:	00000001 00000001 00000000 00000000     ................
   10b84:	00000001 00000001 00000001 00000001     ................
	...
   10b9c:	00000001 00000001 00000001 00000000     ................
	...
   10bb4:	00000001 00000001 00000000 00000000     ................
   10bc4:	00000001 00000001 00000001 00000001     ................
	...
   10bdc:	00000001 00000001 00000001 00000001     ................
   10bec:	00000001 00000000 00000001 00000001     ................
	...
   10c04:	00000001 00000001 00000000 00000001     ................
   10c14:	00000001 00000000 00000001 00000001     ................
   10c24:	00000001 00000000 00000001 00000000     ................
   10c34:	00000000 00000001 00000001 00000001     ................
   10c44:	00000001 00000001 00000000 00000001     ................
   10c54:	00000001 00000000 00000000 00000000     ................
	...
   10c6c:	00000001 00000000 00000000 00000001     ................
   10c7c:	00000001 00000000 00000001 00000001     ................
   10c8c:	00000000 00000001 00000001 00000000     ................
   10c9c:	00000000 00000001 00000001 00000001     ................
   10cac:	00000001 00000000 00000000 00000001     ................
	...
   10cc4:	00000001 00000001 00000001 00000001     ................
   10cd4:	00000001 00000000 00000001 00000001     ................
   10ce4:	00000001 00000000 00000000 00000001     ................
	...
   10d04:	00000001 00000001 00000001 00000000     ................
   10d14:	00000001 00000001 00000001 00000001     ................
   10d24:	00000001 00000001 00000001 00000001     ................
	...
   10d44:	00000001 00000000 00000000 00000000     ................
   10d54:	00000001 00000001 00000001 00000001     ................
   10d64:	00000000 00000001 00000001 00000000     ................
	...
   10d84:	00000001 00000000 00000000 00000001     ................
	...
   10d9c:	00000001 00000001 00000001 00000001     ................
   10dac:	00000001 00000000 00000001 00000001     ................
   10dbc:	00000000 00000001 00000001 00000001     ................
   10dcc:	00000001 00000001 00000000 00000001     ................
   10ddc:	00000001 00000000 00000001 00000001     ................
	...
   10df4:	00000001 00000000 00000001 00000001     ................
   10e04:	00000001 00000000 00000001 00000001     ................
   10e14:	00000000 00000001 00000000 00000000     ................
   10e24:	00000001 00000001 00000000 00000000     ................
   10e34:	00000001 00000000 00000001 00000001     ................
	...
   10e4c:	00000001 00000001 00000000 00000001     ................
	...
   10e64:	00000001 00000001 00000001 00000000     ................
   10e74:	00000001 00000001 00000001 00000001     ................
   10e84:	00000001 00000001 00000000 00000001     ................
   10e94:	00000001 00000000 00000000 00000000     ................
   10ea4:	00000001 00000001 00000001 00000000     ................
   10eb4:	00000000 00000001 00000001 00000001     ................
   10ec4:	00000001 00000000 00000001 00000001     ................
   10ed4:	00000001 00000000 00000000 00000001     ................
   10ee4:	00000001 00000001 00000000 00000000     ................
   10ef4:	00000000 00000001 00000001 00000000     ................
   10f04:	00000001 00000001 00000001 00000001     ................
   10f14:	00000001 00000000 00000000 00000001     ................
	...
   10f30:	00000001 00000001 00000001 00000001     ................
   10f40:	00000000 00000001 00000001 00000001     ................
	...
   10f60:	00000001 00000001 00000001 00000000     ................
   10f70:	00000001 00000000 00000001 00000001     ................
   10f80:	00000000 00000001 00000000 00000001     ................
   10f90:	00000000 00000001 00000000 00000000     ................
   10fa0:	00000001 00000001 00000001 00000001     ................
   10fb0:	00000001 00000000 00000001 00000001     ................
   10fc0:	00000000 00000001 00000001 00000000     ................
   10fd0:	00000000 00000001 00000000 00000000     ................
   10fe0:	00000001 00000000 00000000 00000001     ................
   10ff0:	00000001 00000001 00000001 00000001     ................
   11000:	00000000 00000001 00000001 00000000     ................
   11010:	00000001 00000000 00000000 00000000     ................
   11020:	00000001 00000001 00000001 00000001     ................
   11030:	00000000 00000001 00000001 00000001     ................
   11040:	00000000 00000001 00000001 00000001     ................
   11050:	00000001 00000000 00000000 00000000     ................
   11060:	00000001 00000001 00000000 00000000     ................
   11070:	00000000 00000001 00000001 00000001     ................
   11080:	00000000 00000001 00000001 00000001     ................
   11090:	00000001 00000000 00000000 00000000     ................
	...
   110b4:	00000001 00000001 00000000 00000001     ................
   110c4:	00000001 00000001 00000001 00000001     ................
	...
   110dc:	00000001 00000000 00000001 00000001     ................
   110ec:	00000001 00000001 00000001 00000001     ................
   110fc:	00000000 00000001 00000001 00000001     ................
	...
   1111c:	00000001 00000000 00000001 00000000     ................
   1112c:	00000001 00000001 00000001 00000001     ................
   1113c:	00000000 00000001 00000001 00000001     ................
   1114c:	00000001 00000001 00000001 00000001     ................
   1115c:	00000001 00000001 00000000 00000001     ................
	...
   11184:	00000001 00000000 00000001 00000001     ................
	...
   1119c:	00000001 00000001 00000001 00000001     ................
	...
   111b4:	00000001 00000001 00000000 00000000     ................
   111c4:	00000001 00000001 00000001 00000001     ................
	...
   111dc:	00000001 00000001 00000001 00000000     ................
	...
   111f4:	00000001 00000001 00000000 00000000     ................
   11204:	00000000 00000001 00000001 00000001     ................
	...
   1121c:	00000001 00000001 00000001 00000000     ................
	...
   11244:	00000001 00000001 00000001 00000001     ................
   11254:	00000001 00000001 00000001 00000001     ................
   11264:	00000001 00000001 00000001 00000000     ................
	...
   11284:	00000001 00000001 00000000 00000001     ................
   11294:	00000001 00000001 00000001 00000001     ................
	...
   112ac:	00000001 00000001 00000001 00000001     ................
   112bc:	00000001 00000000 00000001 00000001     ................
	...
   112e0:	00000001 00000001 00000000 00000001     ................
   112f0:	00000001 00000001 00000001 00000001     ................
   11300:	00000000 00000001 00000001 00000000     ................
	...
   11320:	00000001 00000000 00000001 00000001     ................
   11330:	00000001 00000000 00000000 00000000     ................
   11340:	00000000 00000001 00000000 00000000     ................
   11350:	00000000 00000001 00000001 00000001     ................
   11360:	00000000 00000001 00000001 00000001     ................
   11370:	00000001 00000001 00000001 00000001     ................
   11380:	00000001 00000001 00000001 00000001     ................
   11390:	00000001 00000000 00000000 00000000     ................
   113a0:	00000001 00000001 00000000 00000000     ................
   113b0:	00000000 00000001 00000001 00000001     ................
	...
   113c8:	00000001 00000001 00000001 00000000     ................
	...
   113e4:	00000001 00000000 00000001 00000001     ................
   113f4:	00000001 00000001 00000000 00000001     ................
   11404:	00000001 00000001 00000000 00000000     ................
	...
   1141c:	00000001 00000000 00000001 00000001     ................
   1142c:	00000001 00000000 00000001 00000001     ................
   1143c:	00000000 00000001 00000000 00000000     ................
   1144c:	00000000 00000001 00000000 00000000     ................
   1145c:	00000001 00000001 00000001 00000001     ................
   1146c:	00000001 00000001 00000001 00000001     ................
	...
   11484:	00000001 00000001 00000001 00000000     ................
	...
   1149c:	00000001 00000001 00000001 00000000     ................
   114ac:	00000000 00000001 00000001 00000001     ................
   114bc:	00000001 00000001 00000000 00000001     ................
	...
   114d8:	00000001 00000000 00000000 00000001     ................
   114e8:	00000000 00000001 00000001 00000001     ................
   114f8:	00000000 00000001 00000001 00000001     ................
   11508:	00000001 00000000 00000000 00000000     ................
   11518:	00000001 00000000 00000000 00000000     ................
   11528:	00000000 00000001 00000001 00000001     ................
   11538:	00000000 00000001 00000001 00000001     ................
   11548:	00000001 00000000 00000000 00000000     ................
	...
   11564:	00000001 00000001 00000001 00000001     ................
   11574:	00000000 00000001 00000001 00000000     ................
   11584:	00000001 00000000 00000000 00000000     ................
   11594:	00000001 00000000 00000000 00000001     ................
   115a4:	00000000 00000001 00000001 00000001     ................
   115b4:	00000000 00000001 00000001 00000000     ................
   115c4:	00000001 00000000 00000000 00000000     ................
   115d4:	00000001 00000000 00000000 00000001     ................
   115e4:	00000001 00000001 00000001 00000001     ................
   115f4:	00000000 00000001 00000001 00000000     ................
	...
   1160c:	00000001 00000001 00000001 00000001     ................
   1161c:	00000000 00000001 00000001 00000001     ................
	...
   11634:	00000001 00000000 00000001 00000000     ................
   11644:	00000001 00000001 00000001 00000001     ................
   11654:	00000000 00000001 00000001 00000001     ................
	...
   11674:	00000001 00000000 00000000 00000000     ................
   11684:	00000001 00000001 00000001 00000001     ................
   11694:	00000000 00000001 00000001 00000001     ................
   116a4:	00000001 00000001 00000001 00000000     ................
   116b4:	00000001 00000000 00000000 00000000     ................
	...
   116d0:	00000001 00000000 00000001 00000000     ................
   116e0:	00000001 00000001 00000001 00000000     ................
   116f0:	00000000 00000001 00000000 00000001     ................
   11700:	00000000 00000001 00000000 00000001     ................
   11710:	00000001 00000000 00000001 00000000     ................
   11720:	00000001 00000000 00000001 00000001     ................
   11730:	00000000 00000001 00000000 00000001     ................
   11740:	00000000 00000001 00000001 00000000     ................
   11750:	00000001 00000001 00000001 00000001     ................
   11760:	00000001 00000001 00000000 00000001     ................
	...
   11778:	00000001 00000000 00000000 00000000     ................
   11788:	00000001 00000000 00000001 00000001     ................
   11798:	00000000 00000001 00000001 00000001     ................
   117a8:	00000000 00000001 00000000 00000000     ................
   117b8:	00000001 00000000 00000000 00000001     ................
   117c8:	00000001 00000000 00000001 00000001     ................
	...
   117e0:	00000001 00000000 00000000 00000001     ................
   117f0:	00000001 00000001 00000001 00000001     ................
   11800:	00000000 00000001 00000001 00000001     ................
	...
   11820:	00000001 00000000 00000001 00000000     ................
   11830:	00000001 00000001 00000001 00000001     ................
   11840:	00000000 00000001 00000000 00000001     ................
	...
   11860:	00000001 00000001 00000001 00000000     ................
   11870:	00000001 00000000 00000000 00000001     ................
	...
   1188c:	00000001 00000000 00000001 00000001     ................
   1189c:	00000000 00000001 00000001 00000001     ................
   118ac:	00000000 00000001 00000000 00000001     ................
   118bc:	00000001 00000001 00000001 00000001     ................
   118cc:	00000001 00000000 00000001 00000000     ................
	...
   118ec:	00000001 00000001 00000001 00000001     ................
   118fc:	00000001 00000001 00000001 00000001     ................
   1190c:	00000000 00000001 00000000 00000000     ................
   1191c:	00000001 00000000 00000000 00000000     ................
	...
   11934:	00000001 00000001 00000000 00000001     ................
   11944:	00000001 00000001 00000001 00000000     ................
	...
   1195c:	00000001 00000000 00000000 00000000     ................
   1196c:	00000000 00000001 00000001 00000001     ................
   1197c:	00000000 00000001 00000001 00000001     ................
   1198c:	00000001 00000000 00000000 00000000     ................
   1199c:	00000001 00000000 00000001 00000000     ................
   119ac:	00000000 00000001 00000001 00000001     ................
   119bc:	00000001 00000001 00000000 00000001     ................
   119cc:	00000001 00000001 00000001 00000001     ................
	...
   119e4:	00000001 00000000 00000000 00000000     ................
	...
   119fc:	00000001 00000001 00000000 00000001     ................
   11a0c:	00000001 00000001 00000001 00000000     ................
	...
   11a24:	00000001 00000000 00000001 00000000     ................
   11a34:	00000000 00000001 00000001 00000001     ................
   11a44:	00000000 00000001 00000000 00000001     ................
   11a54:	00000001 00000000 00000000 00000000     ................
   11a64:	00000001 00000001 00000001 00000001     ................
   11a74:	00000000 00000001 00000001 00000001     ................
	...
   11a94:	00000001 00000000 00000000 00000000     ................
   11aa4:	00000001 00000001 00000001 00000001     ................
   11ab4:	00000000 00000001 00000001 00000001     ................
   11ac4:	00000001 00000000 00000000 00000000     ................
   11ad4:	00000001 00000000 00000000 00000000     ................
   11ae4:	00000000 00000001 00000001 00000001     ................
   11af4:	00000000 00000001 00000001 00000001     ................
   11b04:	00000001 00000000 00000000 00000000     ................
   11b14:	00000001 00000000 00000000 00000001     ................
   11b24:	00000000 00000001 00000001 00000001     ................
   11b34:	00000000 00000001 00000001 00000000     ................
   11b44:	00000001 00000000 00000000 00000001     ................
   11b54:	00000001 00000000 00000000 00000001     ................
	...
   11b6c:	00000001 00000000 00000001 00000001     ................
   11b7c:	00000001 00000000 00000001 00000001     ................
   11b8c:	00000000 00000001 00000000 00000000     ................
   11b9c:	00000001 00000001 00000000 00000000     ................
   11bac:	00000001 00000000 00000001 00000001     ................
   11bbc:	00000000 00000001 00000001 00000001     ................
   11bcc:	00000000 00000001 00000000 00000000     ................
   11bdc:	00000001 00000000 00000000 00000000     ................
   11bec:	00000001 00000001 00000001 00000001     ................
   11bfc:	00000000 00000001 00000001 00000001     ................
	...
   11c1c:	00000001 00000000 00000000 00000000     ................
   11c2c:	00000001 00000001 00000001 00000001     ................
	...
   11c44:	00000001 00000000 00000000 00000000     ................
	...
   11c60:	00000001 00000000 00000001 00000001     ................
   11c70:	00000001 00000001 00000000 00000001     ................
	...
   11c98:	00000001 00000000 00000001 00000001     ................
   11ca8:	00000001 00000001 00000001 00000001     ................
   11cb8:	00000000 00000001 00000000 00000000     ................
	...
   11cd8:	00000001 00000000 00000001 00000001     ................
   11ce8:	00000001 00000001 00000001 00000000     ................
   11cf8:	00000000 00000001 00000000 00000000     ................
	...
   11d14:	00000001 00000001 00000000 00000000     ................
   11d24:	00000001 00000001 00000001 00000001     ................
	...
   11d40:	00000001 00000000 00000000 00000000     ................
   11d50:	00000000 00000001 00000001 00000001     ................
   11d60:	00000000 00000001 00000001 00000001     ................
   11d70:	00000001 00000000 00000000 00000000     ................
   11d80:	00000001 00000000 00000000 00000000     ................
   11d90:	00000000 00000001 00000001 00000001     ................
	...
   11da8:	00000001 00000001 00000001 00000000     ................
	...
   11dc0:	00000001 00000001 00000000 00000000     ................
   11dd0:	00000000 00000001 00000001 00000001     ................
	...
   11de8:	00000001 00000001 00000001 00000001     ................
	...
   11e00:	00000001 00000001 00000000 00000000     ................
	...
   11e18:	00000001 00000001 00000000 00000000     ................
   11e28:	00000001 00000000 00000001 00000001     ................
	...
   11e40:	00000001 00000000 00000000 00000001     ................
	...
   11e58:	00000001 00000001 00000000 00000001     ................
	...
   11e70:	00000001 00000000 00000000 00000000     ................
   11e80:	00000001 00000000 00000001 00000001     ................
   11e90:	00000000 00000001 00000000 00000001     ................
   11ea0:	00000000 00000001 00000001 00000000     ................
   11eb0:	00000001 00000000 00000001 00000000     ................
   11ec0:	00000001 00000000 00000000 00000001     ................
   11ed0:	00000000 00000001 00000000 00000001     ................
	...
   11ef0:	00000001 00000000 00000001 00000000     ................
   11f00:	00000001 00000001 00000001 00000001     ................
   11f10:	00000000 00000001 00000000 00000001     ................
   11f20:	00000001 00000000 00000000 00000000     ................
	...
   11f38:	00000001 00000001 00000000 00000001     ................
   11f48:	00000001 00000001 00000001 00000001     ................
	...
   11f60:	00000001 00000000 00000000 00000000     ................
	...
   11f78:	00000001 00000000 00000000 00000000     ................
	...
   11f90:	00000001 00000001 00000000 00000001     ................
   11fa0:	00000001 00000001 00000001 00000001     ................
	...
   11fcc:	00000001 00000001 00000001 00000001     ................
   11fdc:	00000001 00000000 00000000 00000001     ................
	...
   12000:	00000001 00000001 00000000 00000000     ................
   12010:	00000001 00000001 00000001 00000001     ................
	...
   1202c:	00000001 00000000 00000000 00000001     ................
   1203c:	00000000 00000001 00000000 00000001     ................
   1204c:	00000000 00000001 00000001 00000000     ................
   1205c:	00000001 00000001 00000001 00000000     ................
   1206c:	00000001 00000000 00000001 00000001     ................
	...
   12088:	00000001 00000000 00000001 00000000     ................
   12098:	00000000 00000001 00000001 00000000     ................
   120a8:	00000000 00000001 00000000 00000001     ................
   120b8:	00000001 00000000 00000000 00000001     ................
	...
   120d0:	00000001 00000000 00000000 00000001     ................
   120e0:	00000001 00000000 00000001 00000001     ................
   120f0:	00000000 00000001 00000001 00000001     ................
   12100:	00000001 00000000 00000000 00000000     ................
   12110:	00000001 00000000 00000001 00000000     ................
   12120:	00000000 00000001 00000001 00000001     ................
   12130:	00000000 00000001 00000000 00000001     ................
   12140:	00000001 00000000 00000000 00000000     ................
   12150:	00000001 00000000 00000001 00000000     ................
	...
   12174:	00000001 00000000 00000001 00000000     ................
   12184:	00000000 00000001 00000001 00000000     ................
   12194:	00000000 00000001 00000000 00000001     ................
   121a4:	00000001 00000000 00000000 00000001     ................
	...
   121bc:	00000001 00000000 00000000 00000000     ................
	...
   121d4:	00000001 00000001 00000000 00000001     ................
   121e4:	00000000 00000001 00000001 00000000     ................
	...
   12204:	00000001 00000000 00000000 00000001     ................
   12214:	00000001 00000000 00000001 00000000     ................
   12224:	00000000 00000001 00000001 00000000     ................
   12234:	00000000 00000001 00000000 00000001     ................
	...
   12250:	00000001 00000001 00000000 00000001     ................
	...
   12278:	00000001 00000000 00000001 00000001     ................
   12288:	00000001 00000001 00000001 00000001     ................
   12298:	00000000 00000001 00000000 00000000     ................
	...
   122b8:	00000001 00000000 00000000 00000000     ................
   122c8:	00000000 00000001 00000001 00000001     ................
	...
   122e0:	00000001 00000000 00000001 00000000     ................
   122f0:	00000000 00000001 00000001 00000001     ................
   12300:	00000000 00000001 00000000 00000001     ................
   12310:	00000001 00000000 00000000 00000001     ................
   12320:	00000001 00000000 00000001 00000000     ................
   12330:	00000000 00000001 00000001 00000000     ................
   12340:	00000001 00000000 00000000 00000001     ................
   12350:	00000001 00000000 00000000 00000001     ................
	...
   12374:	00000001 00000001 00000000 00000001     ................
   12384:	00000001 00000001 00000000 00000000     ................
	...
   1239c:	00000001 00000000 00000000 00000000     ................
   123ac:	00000001 00000001 00000001 00000001     ................
	...
   123dc:	00000001 00000001 00000000 00000001     ................
   123ec:	00000001 00000001 00000001 00000000     ................
	...
   12404:	00000001 00000000 00000000 00000000     ................
   12414:	00000000 00000001 00000001 00000001     ................
   12424:	00000000 00000001 00000001 00000001     ................
   12434:	00000001 00000001 00000000 00000000     ................
	...
   1245c:	00000001 00000000 00000000 00000000     ................
   1246c:	00000000 00000001 00000001 00000001     ................
   1247c:	00000000 00000001 00000000 00000000     ................
	...
   1249c:	00000001 00000000 00000001 00000001     ................
   124ac:	00000001 00000001 00000001 00000001     ................
   124bc:	00000000 00000001 00000000 00000000     ................
   124cc:	00000001 00000000 00000000 00000000     ................
   124dc:	00000001 00000000 00000000 00000000     ................
   124ec:	00000000 00000001 00000001 00000001     ................
   124fc:	00000000 00000001 00000000 00000001     ................
   1250c:	00000001 00000000 00000000 00000000     ................
   1251c:	00000001 00000000 00000000 00000000     ................
	...
   12538:	00000001 00000000 00000001 00000001     ................
   12548:	00000001 00000001 00000001 00000001     ................
   12558:	00000000 00000001 00000000 00000000     ................
	...
   12574:	00000001 00000001 00000000 00000001     ................
	...
   12590:	00000001 00000000 00000000 00000001     ................
	...
   125a8:	00000001 00000001 00000000 00000000     ................
   125b8:	00000001 00000000 00000001 00000000     ................
	...
   125d0:	00000001 00000001 00000000 00000000     ................
   125e0:	00000000 00000001 00000000 00000000     ................
	...
   125f8:	00000001 00000001 00000001 00000000     ................
   12608:	00000001 00000001 00000001 00000001     ................
	...
   1263c:	00000001 00000001 00000000 00000000     ................
   1264c:	00000001 00000001 00000001 00000001     ................
	...
   12668:	00000001 00000000 00000000 00000000     ................
   12678:	00000000 00000001 00000001 00000000     ................
	...
   12690:	00000001 00000000 00000001 00000000     ................
   126a0:	00000000 00000001 00000000 00000001     ................
   126b0:	00000000 00000001 00000000 00000000     ................
	...
   126c8:	00000001 00000000 00000001 00000000     ................
   126d8:	00000001 00000001 00000001 00000000     ................
   126e8:	00000000 00000001 00000000 00000001     ................
	...
   12700:	00000001 00000000 00000000 00000000     ................
   12710:	00000001 00000000 00000001 00000001     ................
	...
   12728:	00000001 00000001 00000000 00000001     ................
   12738:	00000000 00000001 00000001 00000000     ................
	...
   12750:	00000001 00000000 00000001 00000000     ................
   12760:	00000000 00000001 00000000 00000000     ................
   12770:	00000000 00000001 00000000 00000001     ................
   12780:	00000001 00000000 00000001 00000001     ................
	...
   12798:	00000001 00000000 00000000 00000000     ................
	...
   127b0:	00000001 00000001 00000000 00000001     ................
   127c0:	00000001 00000000 00000000 00000001     ................
	...
   127d8:	00000001 00000000 00000001 00000000     ................
	...
   127f0:	00000001 00000001 00000000 00000001     ................
	...
   12808:	00000001 00000001 00000000 00000000     ................
   12818:	00000001 00000000 00000001 00000000     ................
	...
   12830:	00000001 00000001 00000000 00000001     ................
   12840:	00000000 00000001 00000001 00000001     ................
	...
   12870:	00000001 00000000 00000001 00000000     ................
   12880:	00000001 00000000 00000000 00000001     ................
   12890:	00000000 00000001 00000000 00000001     ................
	...
   128a8:	00000001 00000000 00000000 00000000     ................
   128b8:	00000001 00000000 00000001 00000000     ................
	...
   128d0:	00000001 00000001 00000000 00000001     ................
   128e0:	00000001 00000000 00000000 00000001     ................
	...
   128f8:	00000001 00000000 00000000 00000000     ................
   12908:	00000001 00000000 00000001 00000001     ................
   12918:	00000000 00000001 00000001 00000001     ................
   12928:	00000000 00000001 00000000 00000000     ................
   12938:	00000001 00000000 00000000 00000000     ................
   12948:	00000001 00000000 00000001 00000001     ................
   12958:	00000000 00000001 00000001 00000000     ................
   12968:	00000000 00000001 00000001 00000001     ................
   12978:	00000001 00000000 00000000 00000000     ................
	...
   1299c:	00000001 00000001 00000000 00000000     ................
	...
   129b8:	00000001 00000000 00000000 00000000     ................
   129c8:	00000001 00000001 00000001 00000001     ................
   129d8:	00000000 00000001 00000001 00000000     ................
	...
   129f8:	00000001 00000000 00000000 00000001     ................
   12a08:	00000001 00000001 00000001 00000001     ................
   12a18:	00000000 00000001 00000001 00000000     ................
	...
   12a38:	00000001 00000000 00000001 00000000     ................
	...
   12a5c:	00000001 00000000 00000000 00000000     ................
   12a6c:	00000000 00000001 00000001 00000000     ................
   12a7c:	00000000 00000001 00000000 00000000     ................
   12a8c:	00000001 00000000 00000000 00000001     ................
   12a9c:	00000001 00000000 00000000 00000001     ................
   12aac:	00000000 00000001 00000001 00000000     ................
   12abc:	00000000 00000001 00000000 00000000     ................
   12acc:	00000001 00000000 00000000 00000001     ................
   12adc:	00000001 00000000 00000000 00000001     ................
   12aec:	00000000 00000001 00000001 00000001     ................
   12afc:	00000001 00000001 00000001 00000000     ................
   12b0c:	00000001 00000000 00000001 00000000     ................
	...
   12b30:	00000001 00000000 00000001 00000000     ................
   12b40:	00000001 00000000 00000001 00000001     ................
   12b50:	00000000 00000001 00000000 00000001     ................
	...
   12b70:	00000001 00000000 00000001 00000000     ................
   12b80:	00000001 00000000 00000000 00000000     ................
   12b90:	00000000 00000001 00000000 00000001     ................
	...
   12bb8:	00000001 00000000 00000001 00000000     ................
   12bc8:	00000001 00000001 00000001 00000001     ................
	...
   12bf0:	00000001 00000001 00000001 00000001     ................
   12c00:	00000000 00000001 00000001 00000001     ................
	...
   12c20:	00000001 00000000 00000000 00000000     ................
   12c30:	00000001 00000001 00000000 00000000     ................
	...
   12c4c:	00000001 00000000 00000000 00000001     ................
   12c5c:	00000001 00000001 00000000 00000000     ................
   12c6c:	00000000 00000001 00000001 00000000     ................
   12c7c:	00000000 00000001 00000000 00000001     ................
	...
   12c98:	00000001 00000001 00000000 00000000     ................
   12ca8:	00000000 00000001 00000001 00000001     ................
	...
   12cc0:	00000001 00000000 00000000 00000000     ................
	...
   12cdc:	00000001 00000000 00000000 00000001     ................
   12cec:	00000001 00000001 00000000 00000001     ................
   12cfc:	00000000 00000001 00000001 00000000     ................
	...
   12d14:	00000001 00000000 00000001 00000000     ................
   12d24:	00000000 00000001 00000001 00000001     ................
   12d34:	00000000 00000001 00000000 00000001     ................
	...
   12d54:	00000001 00000001 00000001 00000000     ................
	...
   12d70:	00000001 00000000 00000000 00000000     ................
   12d80:	00000001 00000000 00000000 00000001     ................
   12d90:	00000000 00000001 00000001 00000001     ................
	...
   12da8:	00000001 00000000 00000001 00000000     ................
	...
   12dc0:	00000001 00000000 00000000 00000001     ................
   12dd0:	00000000 00000001 00000001 00000001     ................
   12de0:	00000000 00000001 00000001 00000000     ................
   12df0:	00000001 00000000 00000000 00000000     ................
   12e00:	00000001 00000000 00000000 00000001     ................
   12e10:	00000000 00000001 00000001 00000001     ................
	...
   12e40:	00000001 00000000 00000000 00000000     ................
   12e50:	00000001 00000001 00000001 00000001     ................
	...
   12e68:	00000001 00000001 00000000 00000000     ................
	...
   12e90:	00000001 00000001 00000000 00000000     ................
   12ea0:	00000001 00000000 00000000 00000000     ................
	...
   12eb8:	00000001 00000001 00000000 00000001     ................
   12ec8:	00000001 00000001 00000001 00000000     ................
	...
   12ee0:	00000001 00000000 00000000 00000000     ................
   12ef0:	00000000 00000001 00000001 00000001     ................
	...
   12f0c:	00000001 00000001 00000000 00000000     ................
   12f1c:	00000000 00000001 00000000 00000000     ................
	...
   12f34:	00000001 00000001 00000001 00000000     ................
   12f44:	00000000 00000001 00000001 00000001     ................
	...
   12f60:	00000001 00000000 00000000 00000000     ................
   12f70:	00000000 00000001 00000001 00000001     ................
	...
   12f88:	00000001 00000001 00000001 00000000     ................
	...
   12fa4:	00000001 00000000 00000000 00000000     ................
	...
   12fc0:	00000001 00000000 00000000 00000000     ................
   12fd0:	00000000 00000001 00000001 00000001     ................
	...
   12fe8:	00000001 00000001 00000001 00000000     ................
	...
   13000:	00000001 00000000 00000000 00000000     ................
   13010:	00000000 00000001 00000001 00000001     ................
	...
   1302c:	00000001 00000001 00000000 00000000     ................
   1303c:	00000000 00000001 00000000 00000001     ................
	...
   13054:	00000001 00000001 00000001 00000000     ................
   13064:	00000001 00000000 00000000 00000001     ................
	...
   1307c:	00000001 00000001 00000000 00000000     ................
   1308c:	00000001 00000000 00000001 00000001     ................
	...
   130a8:	00000001 00000000 00000001 00000000     ................
   130b8:	00000001 00000001 00000001 00000000     ................
   130c8:	00000000 00000001 00000000 00000001     ................
	...
   130f0:	00000001 00000000 00000000 00000001     ................
   13100:	00000001 00000000 00000001 00000000     ................
   13110:	00000000 00000001 00000001 00000000     ................
   13120:	00000000 00000001 00000000 00000001     ................
   13130:	00000001 00000000 00000000 00000001     ................
   13140:	00000001 00000000 00000001 00000000     ................
	...
   13158:	00000001 00000000 00000000 00000000     ................
   13168:	00000000 00000001 00000001 00000001     ................
	...
   1319c:	00000001 00000001 00000000 00000000     ................
	...
   131b4:	00000001 00000001 00000000 00000001     ................
   131c4:	00000001 00000001 00000001 00000001     ................
	...
   131dc:	00000001 00000000 00000000 00000000     ................
   131ec:	00000001 00000001 00000001 00000001     ................
   131fc:	00000000 00000001 00000000 00000001     ................
	...
   1321c:	00000001 00000000 00000000 00000000     ................
	...
   13238:	00000001 00000000 00000001 00000000     ................
   13248:	00000000 00000001 00000001 00000001     ................
   13258:	00000000 00000001 00000001 00000001     ................
   13268:	00000001 00000000 00000000 00000000     ................
   13278:	00000001 00000000 00000000 00000000     ................
   13288:	00000000 00000001 00000001 00000001     ................
   13298:	00000000 00000001 00000001 00000000     ................
	...
   132b8:	00000001 00000000 00000000 00000000     ................
   132c8:	00000001 00000000 00000000 00000001     ................
   132d8:	00000000 00000001 00000000 00000000     ................
   132e8:	00000000 00000001 00000001 00000000     ................
   132f8:	00000001 00000000 00000001 00000001     ................
   13308:	00000001 00000000 00000000 00000001     ................
	...
   1332c:	00000001 00000001 00000000 00000000     ................
   1333c:	00000001 00000001 00000000 00000000     ................
	...
   13354:	00000001 00000001 00000000 00000000     ................
   13364:	00000000 00000001 00000000 00000001     ................
	...
   1337c:	00000001 00000001 00000001 00000000     ................
   1338c:	00000001 00000000 00000000 00000001     ................
	...
   133a8:	00000001 00000000 00000001 00000001     ................
   133b8:	00000000 00000001 00000001 00000000     ................
   133c8:	00000000 00000001 00000000 00000000     ................
   133d8:	00000001 00000000 00000001 00000000     ................
	...
   133f4:	00000001 00000000 00000001 00000000     ................
   13404:	00000001 00000001 00000000 00000001     ................
   13414:	00000000 00000001 00000000 00000001     ................
	...
   1342c:	00000001 00000000 00000001 00000000     ................
   1343c:	00000001 00000000 00000000 00000000     ................
	...
   13460:	00000001 00000000 00000001 00000000     ................
   13470:	00000001 00000000 00000001 00000001     ................
   13480:	00000000 00000001 00000000 00000001     ................
   13490:	00000000 00000001 00000000 00000000     ................
	...
   134b0:	00000001 00000000 00000001 00000001     ................
   134c0:	00000001 00000000 00000001 00000001     ................
   134d0:	00000000 00000001 00000001 00000000     ................
   134e0:	00000001 00000000 00000000 00000000     ................
	...
   134fc:	00000001 00000000 00000001 00000001     ................
   1350c:	00000000 00000001 00000001 00000001     ................
   1351c:	00000000 00000001 00000000 00000000     ................
   1352c:	00000001 00000000 00000000 00000000     ................
   1353c:	00000001 00000000 00000000 00000000     ................
   1354c:	00000000 00000001 00000001 00000001     ................
   1355c:	00000000 00000001 00000001 00000001     ................
   1356c:	00000001 00000000 00000001 00000000     ................
   1357c:	00000001 00000000 00000000 00000000     ................
   1358c:	00000000 00000001 00000000 00000001     ................
   1359c:	00000000 00000001 00000000 00000000     ................
   135ac:	00000001 00000000 00000001 00000000     ................
   135bc:	00000001 00000000 00000000 00000001     ................
   135cc:	00000000 00000001 00000000 00000001     ................
   135dc:	00000000 00000001 00000001 00000000     ................
   135ec:	00000001 00000000 00000001 00000000     ................
   135fc:	00000001 00000000 00000000 00000001     ................
   1360c:	00000000 00000001 00000000 00000001     ................
   1361c:	00000000 00000001 00000000 00000000     ................
   1362c:	00000001 00000000 00000001 00000000     ................
   1363c:	00000001 00000000 00000001 00000001     ................
   1364c:	00000000 00000001 00000000 00000000     ................
   1365c:	00000000 00000001 00000000 00000000     ................
   1366c:	00000001 00000000 00000000 00000001     ................
	...
   13690:	00000001 00000001 00000000 00000001     ................
   136a0:	00000001 00000001 00000001 00000001     ................
	...
   136b8:	00000001 00000001 00000000 00000000     ................
	...
   136d4:	00000001 00000000 00000000 00000001     ................
   136e4:	00000000 00000001 00000001 00000001     ................
   136f4:	00000000 00000001 00000001 00000000     ................
   13704:	00000001 00000000 00000000 00000000     ................
   13714:	00000001 00000000 00000000 00000001     ................
   13724:	00000000 00000001 00000001 00000001     ................
   13734:	00000000 00000001 00000001 00000000     ................
	...
   13764:	00000001 00000000 00000000 00000000     ................
   13774:	00000001 00000001 00000000 00000001     ................
   13784:	00000000 00000001 00000001 00000001     ................
	...
   1379c:	00000001 00000000 00000000 00000000     ................
	...
   137b4:	00000001 00000001 00000000 00000001     ................
   137c4:	00000001 00000001 00000001 00000001     ................
	...
   137dc:	00000001 00000000 00000000 00000000     ................
	...
   137f4:	00000001 00000001 00000000 00000001     ................
   13804:	00000001 00000001 00000001 00000001     ................
   13814:	00000001 00000000 00000001 00000000     ................
	...
   13838:	00000001 00000000 00000001 00000000     ................
   13848:	00000000 00000001 00000001 00000001     ................
   13858:	00000000 00000001 00000001 00000001     ................
   13868:	00000001 00000000 00000000 00000000     ................
   13878:	00000001 00000001 00000000 00000000     ................
   13888:	00000000 00000001 00000001 00000001     ................
	...
   138a0:	00000001 00000000 00000001 00000000     ................
   138b0:	00000000 00000001 00000001 00000001     ................
   138c0:	00000000 00000001 00000000 00000001     ................
   138d0:	00000001 00000000 00000000 00000000     ................
   138e0:	00000001 00000000 00000001 00000000     ................
   138f0:	00000000 00000001 00000001 00000001     ................
   13900:	00000000 00000001 00000000 00000001     ................
   13910:	00000001 00000000 00000000 00000001     ................
   13920:	00000001 00000000 00000001 00000000     ................
   13930:	00000000 00000001 00000001 00000000     ................
   13940:	00000000 00000001 00000000 00000001     ................
   13950:	00000001 00000000 00000000 00000000     ................
   13960:	00000001 00000000 00000000 00000000     ................
   13970:	00000000 00000001 00000001 00000001     ................
	...
   13988:	00000001 00000001 00000001 00000000     ................
	...
   139a0:	00000001 00000001 00000000 00000000     ................
	...
   139bc:	00000001 00000000 00000000 00000001     ................
   139cc:	00000001 00000000 00000001 00000001     ................
   139dc:	00000000 00000001 00000001 00000000     ................
   139ec:	00000000 00000001 00000000 00000000     ................
   139fc:	00000001 00000000 00000000 00000001     ................
   13a0c:	00000001 00000000 00000001 00000001     ................
   13a1c:	00000000 00000001 00000001 00000000     ................
   13a2c:	00000000 00000001 00000000 00000000     ................
   13a3c:	00000001 00000000 00000000 00000001     ................
   13a4c:	00000001 00000000 00000001 00000001     ................
	...
   13a70:	00000001 00000000 00000000 00000001     ................
   13a80:	00000001 00000001 00000001 00000000     ................
   13a90:	00000000 00000001 00000001 00000000     ................
	...
   13aac:	00000001 00000000 00000000 00000000     ................
   13abc:	00000001 00000001 00000001 00000001     ................
   13acc:	00000000 00000001 00000001 00000001     ................
	...
   13aec:	00000001 00000000 00000000 00000000     ................
   13afc:	00000001 00000001 00000001 00000001     ................
   13b0c:	00000000 00000001 00000001 00000001     ................
	...
   13b2c:	00000001 00000000 00000000 00000000     ................
   13b3c:	00000000 00000001 00000001 00000001     ................
   13b4c:	00000000 00000001 00000001 00000000     ................
   13b5c:	00000001 00000000 00000000 00000000     ................
   13b6c:	00000001 00000000 00000000 00000001     ................
   13b7c:	00000000 00000001 00000001 00000001     ................
   13b8c:	00000000 00000001 00000000 00000000     ................
   13b9c:	00000001 00000000 00000000 00000000     ................
   13bac:	00000001 00000000 00000001 00000001     ................
   13bbc:	00000000 00000001 00000001 00000001     ................
   13bcc:	00000000 00000001 00000000 00000000     ................
   13bdc:	00000001 00000000 00000000 00000000     ................
   13bec:	00000001 00000000 00000001 00000001     ................
   13bfc:	00000001 00000001 00000001 00000001     ................
   13c0c:	00000001 00000001 00000000 00000000     ................
	...
   13c28:	00000001 00000000 00000000 00000001     ................
   13c38:	00000001 00000001 00000001 00000001     ................
   13c48:	00000000 00000001 00000001 00000000     ................
   13c58:	00000001 00000001 00000001 00000000     ................
   13c68:	00000001 00000000 00000000 00000001     ................
	...
   13c84:	00000001 00000000 00000001 00000001     ................
   13c94:	00000000 00000001 00000001 00000000     ................
   13ca4:	00000000 00000001 00000000 00000000     ................
   13cb4:	00000001 00000000 00000000 00000001     ................
   13cc4:	00000001 00000000 00000001 00000000     ................
   13cd4:	00000000 00000001 00000001 00000000     ................
   13ce4:	00000001 00000001 00000000 00000001     ................
   13cf4:	00000001 00000000 00000000 00000001     ................
   13d04:	00000000 00000001 00000001 00000000     ................
   13d14:	00000000 00000001 00000001 00000000     ................
   13d24:	00000001 00000000 00000000 00000001     ................
   13d34:	00000001 00000000 00000000 00000000     ................
   13d44:	00000000 00000001 00000001 00000001     ................
   13d54:	00000000 00000001 00000000 00000001     ................
   13d64:	00000001 00000000 00000000 00000000     ................
   13d74:	00000001 00000000 00000001 00000000     ................
   13d84:	00000000 00000001 00000001 00000000     ................
   13d94:	00000000 00000001 00000000 00000001     ................
   13da4:	00000001 00000000 00000000 00000001     ................
   13db4:	00000001 00000000 00000001 00000000     ................
   13dc4:	00000001 00000001 00000000 00000000     ................
   13dd4:	00000000 00000001 00000000 00000001     ................
	...
   13dec:	00000001 00000001 00000001 00000000     ................
   13dfc:	00000001 00000001 00000001 00000001     ................
	...
   13e18:	00000001 00000000 00000000 00000000     ................
   13e28:	00000000 00000001 00000001 00000001     ................
   13e38:	00000000 00000001 00000001 00000001     ................
   13e48:	00000001 00000000 00000001 00000000     ................
   13e58:	00000001 00000000 00000000 00000001     ................
   13e68:	00000000 00000001 00000000 00000001     ................
   13e78:	00000000 00000001 00000001 00000000     ................
   13e88:	00000001 00000001 00000001 00000000     ................
   13e98:	00000001 00000000 00000000 00000001     ................
	...
   13eb4:	00000001 00000000 00000001 00000000     ................
   13ec4:	00000000 00000001 00000001 00000001     ................
   13ed4:	00000000 00000001 00000000 00000001     ................
   13ee4:	00000001 00000000 00000000 00000000     ................
   13ef4:	00000001 00000000 00000001 00000000     ................
   13f04:	00000001 00000001 00000001 00000001     ................
   13f14:	00000000 00000001 00000000 00000001     ................
   13f24:	00000000 00000001 00000000 00000000     ................
   13f34:	00000001 00000000 00000001 00000000     ................
   13f44:	00000001 00000000 00000001 00000001     ................
   13f54:	00000000 00000001 00000001 00000001     ................
   13f64:	00000001 00000001 00000000 00000000     ................
   13f74:	00000001 00000000 00000000 00000000     ................
	...
   13f8c:	00000001 00000001 00000000 00000001     ................
   13f9c:	00000000 00000001 00000001 00000001     ................
	...
   13fbc:	00000001 00000000 00000000 00000000     ................
	...
   13fd4:	00000001 00000000 00000000 00000001     ................
   13fe4:	00000001 00000001 00000001 00000001     ................
   13ff4:	00000000 00000001 00000001 00000000     ................
   14004:	00000001 00000000 00000000 00000000     ................
   14014:	00000001 00000000 00000000 00000001     ................
   14024:	00000000 00000001 00000001 00000001     ................
   14034:	00000000 00000001 00000001 00000001     ................
   14044:	00000001 00000001 00000001 00000001     ................
   14054:	00000001 00000001 00000001 00000000     ................
   14064:	00000001 00000000 00000000 00000000     ................
   14074:	00000001 00000000 00000000 00000001     ................
   14084:	00000000 00000001 00000001 00000001     ................
   14094:	00000000 00000001 00000001 00000000     ................
   140a4:	00000001 00000001 00000000 00000000     ................
   140b4:	00000001 00000000 00000000 00000001     ................
   140c4:	00000001 00000000 00000001 00000001     ................
   140d4:	00000000 00000001 00000001 00000000     ................
   140e4:	00000000 00000001 00000000 00000000     ................
   140f4:	00000001 00000000 00000001 00000001     ................
   14104:	00000001 00000001 00000001 00000001     ................
   14114:	00000000 00000001 00000000 00000000     ................
   14124:	00000001 00000000 00000000 00000000     ................
   14134:	00000001 00000000 00000001 00000001     ................
   14144:	00000001 00000001 00000001 00000001     ................
   14154:	00000001 00000001 00000000 00000000     ................
	...
   14170:	00000001 00000000 00000001 00000001     ................
   14180:	00000001 00000001 00000001 00000001     ................
   14190:	00000000 00000001 00000000 00000000     ................
   141a0:	00000000 00000001 00000001 00000001     ................
   141b0:	00000001 00000000 00000000 00000001     ................
   141c0:	00000001 00000000 00000000 00000000     ................
   141d0:	00000000 00000001 00000001 00000000     ................
   141e0:	00000000 00000001 00000001 00000000     ................
   141f0:	00000001 00000000 00000001 00000001     ................
   14200:	00000001 00000001 00000000 00000001     ................
   14210:	00000000 00000001 00000000 00000000     ................
   14220:	00000001 00000001 00000001 00000001     ................
   14230:	00000001 00000000 00000001 00000001     ................
	...
   14248:	00000001 00000000 00000001 00000001     ................
	...
   14260:	00000001 00000001 00000000 00000001     ................
	...
   14278:	00000001 00000001 00000000 00000001     ................
   14288:	00000001 00000000 00000001 00000001     ................
	...
   142a0:	00000001 00000001 00000000 00000001     ................
	...
   142b8:	00000001 00000001 00000000 00000000     ................
   142c8:	00000001 00000000 00000001 00000001     ................
   142d8:	00000001 00000001 00000001 00000001     ................
   142e8:	00000000 00000001 00000000 00000000     ................
	...
   14304:	00000001 00000001 00000001 00000001     ................
   14314:	00000001 00000000 00000000 00000001     ................
   14324:	00000001 00000001 00000000 00000000     ................
   14334:	00000000 00000001 00000001 00000000     ................
	...
   1434c:	00000001 00000001 00000001 00000000     ................
   1435c:	00000001 00000001 00000001 00000001     ................
	...
   14378:	00000001 00000000 00000001 00000001     ................
   14388:	00000000 00000001 00000001 00000000     ................
   14398:	00000000 00000001 00000000 00000001     ................
   143a8:	00000001 00000000 00000000 00000001     ................
   143b8:	00000001 00000000 00000001 00000000     ................
   143c8:	00000000 00000001 00000000 00000000     ................
   143d8:	00000000 00000001 00000000 00000001     ................
   143e8:	00000001 00000000 00000001 00000001     ................
   143f8:	00000001 00000000 00000001 00000001     ................
   14408:	00000001 00000001 00000001 00000000     ................
   14418:	00000000 00000001 00000000 00000001     ................
   14428:	00000000 00000001 00000000 00000001     ................
   14438:	00000001 00000001 00000001 00000000     ................
   14448:	00000001 00000000 00000001 00000000     ................
   14458:	00000001 00000000 00000000 00000001     ................
   14468:	00000001 00000001 00000000 00000001     ................
   14478:	00000000 00000001 00000001 00000001     ................
	...
   14490:	00000001 00000000 00000001 00000000     ................
   144a0:	00000000 00000001 00000001 00000001     ................
   144b0:	00000000 00000001 00000000 00000000     ................
   144c0:	00000000 00000001 00000001 00000001     ................
   144d0:	00000001 00000000 00000000 00000001     ................
   144e0:	00000001 00000000 00000000 00000000     ................
   144f0:	00000000 00000001 00000001 00000000     ................
   14500:	00000001 00000001 00000001 00000001     ................
   14510:	00000001 00000000 00000000 00000001     ................
   14520:	00000000 00000001 00000001 00000000     ................
	...
   14538:	00000001 00000000 00000001 00000001     ................
   14548:	00000000 00000001 00000000 00000001     ................
   14558:	00000000 00000001 00000000 00000001     ................
   14568:	00000001 00000000 00000001 00000000     ................
   14578:	00000001 00000001 00000001 00000000     ................
   14588:	00000000 00000001 00000000 00000001     ................
	...
   145a4:	00000001 00000001 00000000 00000001     ................
   145b4:	00000000 00000001 00000001 00000001     ................
   145c4:	00000001 00000001 00000001 00000000     ................
   145d4:	00000001 00000001 00000000 00000000     ................
   145e4:	00000001 00000001 00000001 00000001     ................
   145f4:	00000001 00000000 00000001 00000001     ................
   14604:	00000001 00000000 00000000 00000001     ................
   14614:	00000000 00000001 00000000 00000000     ................
   14624:	00000000 00000001 00000001 00000000     ................
   14634:	00000001 00000000 00000001 00000001     ................
   14644:	00000001 00000000 00000000 00000001     ................
   14654:	00000000 00000001 00000000 00000000     ................
   14664:	00000001 00000001 00000001 00000000     ................
   14674:	00000001 00000000 00000001 00000001     ................
   14684:	00000001 00000001 00000001 00000001     ................
   14694:	00000000 00000001 00000000 00000001     ................
   146a4:	00000001 00000001 00000001 00000000     ................
	...
   146bc:	00000001 00000000 00000001 00000000     ................
   146cc:	00000000 00000001 00000001 00000001     ................
   146dc:	00000000 00000001 00000000 00000001     ................
   146ec:	00000001 00000000 00000000 00000000     ................
   146fc:	00000001 00000000 00000001 00000001     ................
   1470c:	00000000 00000001 00000001 00000001     ................
   1471c:	00000000 00000001 00000001 00000001     ................
   1472c:	00000001 00000000 00000000 00000000     ................
   1473c:	00000001 00000000 00000001 00000000     ................
   1474c:	00000000 00000001 00000001 00000001     ................
	...
   14764:	00000001 00000001 00000001 00000000     ................
	...
   1477c:	00000001 00000001 00000001 00000001     ................
   1478c:	00000000 00000001 00000001 00000001     ................
	...
   147a4:	00000001 00000000 00000001 00000000     ................
	...
   147c0:	00000001 00000000 00000001 00000000     ................
   147d0:	00000001 00000001 00000001 00000001     ................
   147e0:	00000000 00000001 00000000 00000001     ................
   147f0:	00000001 00000000 00000000 00000000     ................
   14800:	00000001 00000001 00000001 00000000     ................
   14810:	00000000 00000001 00000001 00000001     ................
   14820:	00000000 00000001 00000001 00000001     ................
   14830:	00000001 00000000 00000000 00000000     ................
   14840:	00000001 00000001 00000001 00000001     ................
   14850:	00000001 00000001 00000001 00000000     ................
   14860:	00000000 00000001 00000000 00000000     ................
	...
   1487c:	00000001 00000000 00000000 00000001     ................
   1488c:	00000001 00000000 00000001 00000000     ................
   1489c:	00000000 00000001 00000001 00000000     ................
   148ac:	00000000 00000001 00000000 00000001     ................
   148bc:	00000001 00000000 00000001 00000001     ................
   148cc:	00000001 00000000 00000001 00000000     ................
   148dc:	00000000 00000001 00000001 00000001     ................
   148ec:	00000001 00000001 00000000 00000001     ................
   148fc:	00000001 00000000 00000001 00000001     ................
   1490c:	00000000 00000001 00000001 00000000     ................
   1491c:	00000000 00000001 00000001 00000000     ................
   1492c:	00000001 00000000 00000000 00000001     ................
   1493c:	00000001 00000001 00000001 00000001     ................
   1494c:	00000001 00000001 00000001 00000001     ................
   1495c:	00000001 00000000 00000001 00000001     ................
	...
   14980:	00000001 00000000 00000000 00000001     ................
   14990:	00000001 00000001 00000001 00000001     ................
   149a0:	00000000 00000001 00000001 00000000     ................
	...
   149c0:	00000001 00000001 00000001 00000001     ................
   149d0:	00000001 00000001 00000001 00000001     ................
   149e0:	00000000 00000001 00000000 00000000     ................
	...
   14a04:	00000001 00000001 00000001 00000001     ................
   14a14:	00000001 00000001 00000001 00000001     ................
   14a24:	00000001 00000001 00000001 00000001     ................
   14a34:	00000001 00000001 00000000 00000000     ................
   14a44:	00000001 00000000 00000000 00000000     ................
	...
   14a5c:	00000001 00000001 00000000 00000001     ................
   14a6c:	00000001 00000000 00000000 00000000     ................
	...
   14a84:	00000001 00000001 00000000 00000001     ................
   14a94:	00000001 00000001 00000001 00000001     ................
   14aa4:	00000001 00000000 00000001 00000001     ................
   14ab4:	00000001 00000000 00000000 00000000     ................
   14ac4:	00000001 00000001 00000001 00000000     ................
   14ad4:	00000000 00000001 00000001 00000000     ................
   14ae4:	00000001 00000001 00000000 00000001     ................
	...
   14b00:	00000001 00000001 00000001 00000001     ................
   14b10:	00000000 00000001 00000001 00000001     ................
   14b20:	00000000 00000001 00000000 00000001     ................
   14b30:	00000001 00000001 00000000 00000000     ................
   14b40:	00000001 00000001 00000001 00000000     ................
	...
   14b58:	00000001 00000001 00000000 00000000     ................
   14b68:	00000000 00000001 00000001 00000001     ................
	...
   14b80:	00000001 00000001 00000001 00000000     ................
	...
   14b98:	00000001 00000001 00000000 00000001     ................
   14ba8:	00000001 00000001 00000001 00000001     ................
	...
   14bc0:	00000001 00000001 00000001 00000001     ................
   14bd0:	00000001 00000000 00000001 00000001     ................
   14be0:	00000000 00000001 00000001 00000000     ................
   14bf0:	00000000 00000001 00000000 00000000     ................
   14c00:	00000000 00000001 00000000 00000001     ................
   14c10:	00000001 00000001 00000001 00000001     ................
   14c20:	00000001 00000001 00000001 00000000     ................
	...
   14c44:	00000001 00000000 00000001 00000001     ................
   14c54:	00000001 00000001 00000001 00000001     ................
   14c64:	00000000 00000001 00000001 00000001     ................
   14c74:	00000001 00000001 00000001 00000001     ................
   14c84:	00000001 00000001 00000000 00000000     ................
	...
   14ca4:	00000001 00000000 00000001 00000001     ................
	...
   14cc4:	00000001 00000001 00000000 00000000     ................
   14cd4:	00000001 00000001 00000001 00000001     ................
   14ce4:	00000001 00000001 00000001 00000001     ................
	...
   14d04:	00000001 00000001 00000001 00000001     ................
   14d14:	00000001 00000001 00000001 00000001     ................
   14d24:	00000001 00000000 00000000 00000000     ................
   14d34:	00000001 00000001 00000001 00000000     ................
   14d44:	00000001 00000001 00000001 00000001     ................
	...
   14d60:	00000001 00000000 00000000 00000000     ................
   14d70:	00000000 00000001 00000001 00000001     ................
   14d80:	00000000 00000001 00000001 00000001     ................
   14d90:	00000001 00000000 00000000 00000000     ................
   14da0:	00000001 00000001 00000001 00000001     ................
   14db0:	00000001 00000001 00000001 00000000     ................
   14dc0:	00000000 00000001 00000001 00000000     ................
	...
   14ddc:	00000001 00000001 00000001 00000000     ................
   14dec:	00000001 00000001 00000001 00000001     ................
	...
   14e04:	00000001 00000001 00000000 00000000     ................
	...
   14e1c:	00000001 00000001 00000001 00000000     ................
   14e2c:	00000001 00000001 00000001 00000001     ................
	...
   14e48:	00000001 00000001 00000000 00000000     ................
   14e58:	00000000 00000001 00000001 00000001     ................
   14e68:	00000001 00000000 00000001 00000001     ................
   14e78:	00000001 00000000 00000000 00000001     ................
   14e88:	00000001 00000001 00000000 00000001     ................
   14e98:	00000001 00000001 00000001 00000001     ................
	...
   14eb0:	00000001 00000000 00000000 00000001     ................
   14ec0:	00000001 00000001 00000001 00000001     ................
   14ed0:	00000000 00000001 00000001 00000000     ................
   14ee0:	00000000 00000001 00000001 00000000     ................
   14ef0:	00000001 00000000 00000000 00000000     ................
   14f00:	00000001 00000001 00000000 00000001     ................
   14f10:	00000000 00000001 00000001 00000001     ................
	...
   14f28:	00000001 00000000 00000001 00000000     ................
	...
   14f40:	00000001 00000001 00000000 00000001     ................
   14f50:	00000001 00000001 00000001 00000001     ................
   14f60:	00000000 00000001 00000001 00000001     ................
   14f70:	00000000 00000001 00000000 00000000     ................
   14f80:	00000001 00000001 00000001 00000000     ................
   14f90:	00000001 00000000 00000001 00000001     ................
   14fa0:	00000000 00000001 00000001 00000001     ................
   14fb0:	00000000 00000001 00000000 00000000     ................
   14fc0:	00000001 00000001 00000000 00000001     ................
   14fd0:	00000001 00000000 00000001 00000001     ................
	...
   14fe8:	00000001 00000000 00000000 00000001     ................
	...
   15000:	00000001 00000001 00000000 00000001     ................
   15010:	00000001 00000000 00000001 00000001     ................
   15020:	00000001 00000001 00000001 00000000     ................
   15030:	00000000 00000001 00000000 00000000     ................
   15040:	00000000 00000001 00000001 00000001     ................
   15050:	00000001 00000000 00000001 00000001     ................
   15060:	00000001 00000001 00000001 00000001     ................
   15070:	00000001 00000001 00000000 00000000     ................
   15080:	00000000 00000001 00000000 00000000     ................
	...
   15098:	00000001 00000001 00000001 00000000     ................
   150a8:	00000001 00000001 00000001 00000001     ................
   150b8:	00000000 00000001 00000000 00000001     ................
   150c8:	00000001 00000001 00000001 00000000     ................
   150d8:	00000001 00000000 00000001 00000001     ................
   150e8:	00000001 00000000 00000000 00000001     ................
   150f8:	00000001 00000001 00000000 00000001     ................
   15108:	00000000 00000001 00000001 00000000     ................
	...
   15120:	00000001 00000001 00000001 00000000     ................
   15130:	00000000 00000001 00000001 00000001     ................
   15140:	00000000 00000001 00000001 00000001     ................
   15150:	00000001 00000000 00000000 00000000     ................
   15160:	00000001 00000000 00000000 00000000     ................
	...
   15184:	00000001 00000001 00000001 00000001     ................
   15194:	00000001 00000001 00000001 00000001     ................
   151a4:	00000001 00000000 00000000 00000000     ................
   151b4:	00000000 00000001 00000001 00000000     ................
   151c4:	00000001 00000001 00000001 00000001     ................
   151d4:	00000001 00000000 00000000 00000001     ................
   151e4:	00000001 00000001 00000001 00000000     ................
   151f4:	00000000 00000001 00000001 00000000     ................
	...
   15210:	00000001 00000000 00000000 00000000     ................
   15220:	00000001 00000001 00000001 00000001     ................
   15230:	00000000 00000001 00000000 00000000     ................
   15240:	00000000 00000001 00000001 00000000     ................
	...
   15258:	00000001 00000001 00000000 00000001     ................
   15268:	00000000 00000001 00000001 00000001     ................
	...
   15280:	00000001 00000001 00000001 00000000     ................
	...
   15298:	00000001 00000001 00000001 00000000     ................
   152a8:	00000000 00000001 00000001 00000001     ................
   152b8:	00000000 00000001 00000000 00000001     ................
   152c8:	00000001 00000001 00000001 00000000     ................
   152d8:	00000001 00000000 00000001 00000001     ................
   152e8:	00000001 00000000 00000000 00000001     ................
   152f8:	00000001 00000001 00000000 00000001     ................
   15308:	00000001 00000001 00000001 00000000     ................
	...
   15320:	00000001 00000000 00000000 00000000     ................
   15330:	00000000 00000001 00000001 00000001     ................
   15340:	00000000 00000001 00000001 00000001     ................
   15350:	00000001 00000000 00000000 00000000     ................
   15360:	00000000 00000001 00000001 00000000     ................
   15370:	00000000 00000001 00000001 00000000     ................
   15380:	00000001 00000001 00000000 00000001     ................
   15390:	00000001 00000000 00000000 00000001     ................
   153a0:	00000000 00000001 00000001 00000000     ................
   153b0:	00000000 00000001 00000001 00000000     ................
   153c0:	00000001 00000000 00000000 00000001     ................
   153d0:	00000001 00000000 00000000 00000001     ................
   153e0:	00000000 00000001 00000001 00000000     ................
   153f0:	00000001 00000001 00000001 00000000     ................
   15400:	00000000 00000001 00000001 00000001     ................
   15410:	00000000 00000001 00000000 00000001     ................
   15420:	00000001 00000001 00000000 00000001     ................
   15430:	00000001 00000000 00000001 00000000     ................
	...
   15448:	00000001 00000000 00000000 00000001     ................
   15458:	00000000 00000001 00000001 00000001     ................
   15468:	00000000 00000001 00000001 00000000     ................
   15478:	00000001 00000000 00000000 00000001     ................
   15488:	00000001 00000000 00000000 00000001     ................
   15498:	00000000 00000001 00000001 00000001     ................
   154a8:	00000001 00000001 00000001 00000000     ................
   154b8:	00000001 00000000 00000000 00000000     ................
	...
   154d4:	00000001 00000000 00000001 00000000     ................
   154e4:	00000001 00000001 00000000 00000000     ................
	...
   15500:	00000001 00000001 00000000 00000001     ................
   15510:	00000001 00000001 00000001 00000000     ................
	...
   15528:	00000001 00000000 00000001 00000000     ................
   15538:	00000000 00000001 00000001 00000001     ................
   15548:	00000000 00000001 00000000 00000001     ................
   15558:	00000001 00000000 00000000 00000001     ................
   15568:	00000001 00000001 00000001 00000000     ................
   15578:	00000000 00000001 00000001 00000001     ................
   15588:	00000001 00000000 00000000 00000001     ................
   15598:	00000001 00000000 00000000 00000000     ................
   155a8:	00000000 00000001 00000001 00000000     ................
   155b8:	00000000 00000001 00000001 00000001     ................
   155c8:	00000001 00000000 00000000 00000001     ................
   155d8:	00000001 00000000 00000000 00000001     ................
   155e8:	00000000 00000001 00000001 00000000     ................
   155f8:	00000000 00000001 00000001 00000000     ................
   15608:	00000001 00000000 00000000 00000001     ................
   15618:	00000001 00000000 00000000 00000001     ................
   15628:	00000000 00000001 00000001 00000000     ................
	...
   15640:	00000001 00000001 00000001 00000000     ................
   15650:	00000000 00000001 00000001 00000001     ................
	...
   15668:	00000001 00000001 00000001 00000000     ................
	...
   15680:	00000001 00000001 00000000 00000001     ................
   15690:	00000001 00000001 00000001 00000001     ................
   156a0:	00000000 00000001 00000001 00000000     ................
   156b0:	00000000 00000001 00000001 00000001     ................
   156c0:	00000001 00000000 00000001 00000001     ................
   156d0:	00000001 00000000 00000000 00000000     ................
   156e0:	00000000 00000001 00000000 00000000     ................
   156f0:	00000000 00000001 00000000 00000000     ................
   15700:	00000001 00000001 00000001 00000001     ................
   15710:	00000001 00000000 00000001 00000001     ................
	...
   15734:	00000001 00000000 00000000 00000001     ................
   15744:	00000001 00000001 00000001 00000001     ................
   15754:	00000000 00000001 00000001 00000000     ................
   15764:	00000001 00000001 00000001 00000001     ................
   15774:	00000001 00000000 00000000 00000001     ................
	...
   15798:	00000001 00000001 00000000 00000001     ................
   157a8:	00000001 00000001 00000000 00000000     ................
	...
   157c4:	00000001 00000000 00000000 00000001     ................
   157d4:	00000001 00000001 00000000 00000001     ................
   157e4:	00000000 00000001 00000001 00000000     ................
	...
   157fc:	00000001 00000000 00000001 00000000     ................
   1580c:	00000000 00000001 00000001 00000001     ................
	...
   15828:	00000001 00000001 00000000 00000000     ................
   15838:	00000000 00000001 00000001 00000001     ................
   15848:	00000001 00000000 00000001 00000001     ................
   15858:	00000001 00000000 00000000 00000001     ................
   15868:	00000000 00000001 00000000 00000000     ................
   15878:	00000000 00000001 00000001 00000000     ................
   15888:	00000001 00000001 00000001 00000001     ................
   15898:	00000001 00000000 00000000 00000001     ................
	...
   158bc:	00000001 00000001 00000001 00000001     ................
   158cc:	00000001 00000001 00000001 00000001     ................
	...
   158f4:	00000001 00000001 00000001 00000001     ................
   15904:	00000001 00000001 00000001 00000001     ................
	...
   15934:	00000001 00000000 00000001 00000001     ................
   15944:	00000001 00000001 00000001 00000001     ................
   15954:	00000000 00000001 00000000 00000000     ................
   15964:	00000000 00000001 00000001 00000001     ................
   15974:	00000001 00000000 00000001 00000001     ................
   15984:	00000001 00000000 00000000 00000000     ................
   15994:	00000000 00000001 00000001 00000000     ................
   159a4:	00000001 00000001 00000001 00000001     ................
   159b4:	00000001 00000001 00000000 00000001     ................
	...
   159dc:	00000001 00000000 00000001 00000001     ................
   159ec:	00000001 00000000 00000001 00000001     ................
   159fc:	00000000 00000001 00000000 00000000     ................
   15a0c:	00000000 00000001 00000000 00000000     ................
	...
   15a24:	00000001 00000001 00000001 00000000     ................
   15a34:	00000001 00000001 00000001 00000001     ................
	...
   15a50:	00000001 00000000 00000000 00000000     ................
   15a60:	00000000 00000001 00000001 00000001     ................
   15a70:	00000000 00000001 00000001 00000001     ................
   15a80:	00000001 00000000 00000001 00000000     ................
   15a90:	00000001 00000000 00000000 00000000     ................
   15aa0:	00000000 00000001 00000000 00000001     ................
   15ab0:	00000000 00000001 00000001 00000001     ................
   15ac0:	00000001 00000001 00000001 00000000     ................
   15ad0:	00000001 00000001 00000001 00000000     ................
	...
   15aec:	00000001 00000001 00000000 00000000     ................
   15afc:	00000001 00000001 00000001 00000001     ................
	...
   15b14:	00000001 00000001 00000000 00000000     ................
	...
   15b2c:	00000001 00000000 00000000 00000000     ................
   15b3c:	00000001 00000001 00000001 00000000     ................
   15b4c:	00000000 00000001 00000001 00000000     ................
	...
   15b68:	00000001 00000001 00000000 00000000     ................
   15b78:	00000001 00000001 00000001 00000001     ................
	...
   15b90:	00000001 00000001 00000000 00000000     ................
	...
   15ba8:	00000001 00000001 00000000 00000000     ................
   15bb8:	00000001 00000001 00000001 00000001     ................
	...
   15be8:	00000001 00000000 00000001 00000001     ................
   15bf8:	00000001 00000000 00000000 00000001     ................
   15c08:	00000000 00000001 00000000 00000000     ................
   15c18:	00000000 00000001 00000001 00000000     ................
	...
   15c30:	00000001 00000001 00000001 00000000     ................
   15c40:	00000001 00000001 00000001 00000001     ................
	...
   15c5c:	00000001 00000000 00000000 00000000     ................
   15c6c:	00000000 00000001 00000001 00000001     ................
   15c7c:	00000001 00000001 00000000 00000000     ................
	...
   15c98:	00000001 00000000 00000001 00000001     ................
   15ca8:	00000001 00000001 00000001 00000001     ................
   15cb8:	00000000 00000001 00000000 00000000     ................
   15cc8:	00000001 00000001 00000000 00000000     ................
   15cd8:	00000001 00000000 00000001 00000001     ................
	...
   15cf0:	00000001 00000001 00000000 00000001     ................
	...
   15d08:	00000001 00000001 00000000 00000000     ................
   15d18:	00000001 00000001 00000001 00000001     ................
	...
   15d30:	00000001 00000001 00000001 00000000     ................
	...
   15d48:	00000001 00000001 00000000 00000001     ................
   15d58:	00000000 00000001 00000001 00000001     ................
	...
   15d70:	00000001 00000000 00000001 00000000     ................
	...
   15d94:	00000001 00000000 00000000 00000000     ................
   15da4:	00000000 00000001 00000001 00000001     ................
	...
   15dbc:	00000001 00000001 00000001 00000000     ................
   15dcc:	00000001 00000000 00000000 00000001     ................
	...
   15de8:	00000001 00000000 00000001 00000001     ................
   15df8:	00000000 00000001 00000001 00000001     ................
   15e08:	00000000 00000001 00000000 00000000     ................
   15e18:	00000001 00000000 00000000 00000000     ................
   15e28:	00000001 00000000 00000001 00000001     ................
   15e38:	00000000 00000001 00000001 00000000     ................
   15e48:	00000000 00000001 00000000 00000000     ................
   15e58:	00000001 00000001 00000001 00000001     ................
   15e68:	00000001 00000000 00000001 00000001     ................
   15e78:	00000001 00000000 00000000 00000000     ................
   15e88:	00000000 00000001 00000000 00000000     ................
   15e98:	00000000 00000001 00000000 00000001     ................
   15ea8:	00000001 00000000 00000001 00000001     ................
   15eb8:	00000001 00000000 00000001 00000000     ................
   15ec8:	00000000 00000001 00000000 00000000     ................
   15ed8:	00000000 00000001 00000000 00000000     ................
   15ee8:	00000001 00000000 00000001 00000001     ................
   15ef8:	00000001 00000000 00000001 00000001     ................
   15f08:	00000000 00000001 00000000 00000000     ................
   15f18:	00000000 00000001 00000000 00000000     ................
   15f28:	00000001 00000000 00000001 00000001     ................
   15f38:	00000001 00000000 00000001 00000001     ................
   15f48:	00000000 00000001 00000000 00000000     ................
   15f58:	00000000 00000001 00000000 00000000     ................
	...
   15f70:	00000001 00000001 00000001 00000000     ................
   15f80:	00000001 00000000 00000001 00000000     ................
	...
   15f98:	00000001 00000001 00000000 00000001     ................
   15fa8:	00000000 00000001 00000001 00000001     ................
	...
   15fc0:	00000001 00000000 00000001 00000000     ................
	...
   15fdc:	00000001 00000001 00000000 00000000     ................
   15fec:	00000001 00000001 00000000 00000001     ................
	...
   16004:	00000001 00000000 00000000 00000000     ................
   16014:	00000001 00000000 00000001 00000001     ................
   16024:	00000000 00000001 00000000 00000000     ................
   16034:	00000000 00000001 00000000 00000000     ................
	...
   1604c:	00000001 00000001 00000001 00000000     ................
   1605c:	00000001 00000000 00000001 00000001     ................
	...
   16080:	00000001 00000000 00000000 00000001     ................
   16090:	00000001 00000001 00000001 00000000     ................
	...
   160bc:	00000001 00000001 00000001 00000001     ................
   160cc:	00000000 00000001 00000001 00000001     ................
   160dc:	00000001 00000000 00000000 00000000     ................
   160ec:	00000001 00000000 00000000 00000000     ................
   160fc:	00000000 00000001 00000000 00000000     ................
   1610c:	00000000 00000001 00000001 00000001     ................
   1611c:	00000001 00000000 00000001 00000001     ................
   1612c:	00000001 00000000 00000000 00000000     ................
   1613c:	00000000 00000001 00000000 00000000     ................
   1614c:	00000000 00000001 00000001 00000001     ................
   1615c:	00000001 00000000 00000000 00000000     ................
   1616c:	00000001 00000000 00000000 00000001     ................
   1617c:	00000001 00000001 00000000 00000001     ................
   1618c:	00000000 00000001 00000001 00000000     ................
   1619c:	00000000 00000001 00000001 00000000     ................
   161ac:	00000001 00000000 00000000 00000001     ................
   161bc:	00000001 00000000 00000000 00000001     ................
   161cc:	00000000 00000001 00000001 00000000     ................
	...
   161ec:	00000001 00000000 00000000 00000001     ................
   161fc:	00000001 00000001 00000001 00000001     ................
   1620c:	00000000 00000001 00000001 00000001     ................
	...
   1623c:	00000001 00000001 00000000 00000000     ................
   1624c:	00000001 00000001 00000001 00000001     ................
	...
   16284:	00000001 00000001 00000001 00000000     ................
   16294:	00000001 00000001 00000001 00000001     ................
	...
   162b0:	00000001 00000000 00000000 00000000     ................
   162c0:	00000001 00000000 00000001 00000001     ................
   162d0:	00000000 00000001 00000000 00000001     ................
	...
   162f0:	00000001 00000000 00000001 00000000     ................
   16300:	00000001 00000001 00000000 00000000     ................
   16310:	00000000 00000001 00000000 00000001     ................
	...
   16328:	00000001 00000001 00000001 00000000     ................
   16338:	00000001 00000000 00000001 00000000     ................
   16348:	00000000 00000001 00000000 00000001     ................
   16358:	00000000 00000001 00000000 00000000     ................
   16368:	00000001 00000000 00000001 00000000     ................
   16378:	00000001 00000000 00000001 00000001     ................
	...
   16394:	00000001 00000000 00000001 00000000     ................
	...
   163ac:	00000001 00000001 00000000 00000001     ................
   163bc:	00000001 00000001 00000000 00000001     ................
	...
   163d4:	00000001 00000000 00000000 00000000     ................
	...
   163ec:	00000001 00000001 00000000 00000001     ................
   163fc:	00000001 00000001 00000001 00000000     ................
	...
   16414:	00000001 00000000 00000000 00000000     ................
   16424:	00000000 00000001 00000001 00000000     ................
   16434:	00000000 00000001 00000001 00000001     ................
	...
   16450:	00000001 00000000 00000000 00000000     ................
	...
   16474:	00000001 00000001 00000001 00000001     ................
   16484:	00000000 00000001 00000001 00000001     ................
	...
   164a4:	00000001 00000000 00000000 00000000     ................
   164b4:	00000001 00000001 00000000 00000000     ................
	...
   164cc:	00000001 00000000 00000000 00000000     ................
   164dc:	00000001 00000001 00000000 00000001     ................
   164ec:	00000000 00000001 00000001 00000000     ................
   164fc:	00000000 00000001 00000000 00000000     ................
   1650c:	00000001 00000000 00000000 00000001     ................
   1651c:	00000001 00000000 00000000 00000000     ................
   1652c:	00000000 00000001 00000001 00000000     ................
   1653c:	00000000 00000001 00000001 00000001     ................
	...
   16558:	00000001 00000001 00000000 00000000     ................
   16568:	00000000 00000001 00000001 00000000     ................
	...
   16580:	00000001 00000000 00000000 00000000     ................
   16590:	00000000 00000001 00000000 00000000     ................
	...
   165a8:	00000001 00000001 00000001 00000000     ................
   165b8:	00000001 00000001 00000001 00000000     ................
   165c8:	00000000 00000001 00000000 00000001     ................
   165d8:	00000000 00000001 00000000 00000001     ................
   165e8:	00000001 00000000 00000001 00000000     ................
   165f8:	00000001 00000000 00000001 00000000     ................
	...
   16614:	00000001 00000000 00000001 00000000     ................
	...
   1662c:	00000001 00000001 00000000 00000001     ................
   1663c:	00000000 00000001 00000000 00000000     ................
	...
   16654:	00000001 00000000 00000001 00000000     ................
   16664:	00000000 00000001 00000001 00000000     ................
   16674:	00000000 00000001 00000000 00000001     ................
	...
   16690:	00000001 00000001 00000000 00000001     ................
   166a0:	00000000 00000001 00000001 00000000     ................
	...
   166b8:	00000001 00000001 00000001 00000000     ................
   166c8:	00000000 00000001 00000001 00000001     ................
	...
   166f8:	00000001 00000001 00000001 00000000     ................
   16708:	00000000 00000001 00000001 00000001     ................
	...
   16728:	00000001 00000000 00000000 00000000     ................
   16738:	00000001 00000001 00000001 00000000     ................
   16748:	00000000 00000001 00000001 00000001     ................
	...
   16764:	00000001 00000001 00000000 00000000     ................
   16774:	00000000 00000001 00000001 00000000     ................
	...
   167a0:	00000001 00000000 00000000 00000001     ................
   167b0:	00000001 00000001 00000001 00000000     ................
	...
   167d4:	00000001 00000000 00000001 00000001     ................
   167e4:	00000000 00000001 00000001 00000001     ................
   167f4:	00000000 00000001 00000000 00000000     ................
	...
   16814:	00000001 00000000 00000001 00000001     ................
   16824:	00000000 00000001 00000001 00000001     ................
   16834:	00000000 00000001 00000001 00000000     ................
   16844:	00000001 00000000 00000000 00000000     ................
   16854:	00000001 00000001 00000000 00000001     ................
	...
   1687c:	00000001 00000000 00000000 00000001     ................
   1688c:	00000001 00000001 00000001 00000001     ................
   1689c:	00000000 00000001 00000000 00000000     ................
	...
   168b4:	00000001 00000000 00000001 00000000     ................
	...
   168d0:	00000001 00000000 00000001 00000000     ................
   168e0:	00000001 00000000 00000001 00000001     ................
   168f0:	00000000 00000001 00000000 00000001     ................
	...
   16910:	00000001 00000000 00000001 00000000     ................
   16920:	00000001 00000001 00000000 00000001     ................
   16930:	00000000 00000001 00000000 00000000     ................
	...
   16948:	00000001 00000000 00000001 00000000     ................
   16958:	00000001 00000001 00000000 00000000     ................
   16968:	00000000 00000001 00000000 00000001     ................
	...
   16980:	00000001 00000000 00000000 00000000     ................
   16990:	00000001 00000000 00000001 00000001     ................
   169a0:	00000001 00000000 00000001 00000000     ................
   169b0:	00000000 00000001 00000000 00000000     ................
	...
   169cc:	00000001 00000000 00000000 00000001     ................
   169dc:	00000001 00000001 00000000 00000000     ................
   169ec:	00000000 00000001 00000000 00000000     ................
	...
   16a04:	00000001 00000001 00000000 00000000     ................
   16a14:	00000001 00000000 00000000 00000000     ................
	...
   16a2c:	00000001 00000001 00000000 00000001     ................
   16a3c:	00000001 00000001 00000000 00000000     ................
	...
   16a54:	00000001 00000000 00000001 00000001     ................
	...
   16a6c:	00000001 00000001 00000000 00000001     ................
	...
   16a88:	00000001 00000000 00000000 00000001     ................
   16a98:	00000000 00000001 00000000 00000000     ................
   16aa8:	00000000 00000001 00000001 00000000     ................
   16ab8:	00000001 00000000 00000001 00000000     ................
	...
   16ad4:	00000001 00000000 00000001 00000000     ................
   16ae4:	00000000 00000001 00000000 00000000     ................
   16af4:	00000000 00000001 00000000 00000001     ................
   16b04:	00000001 00000000 00000001 00000001     ................
	...
   16b28:	00000001 00000000 00000000 00000001     ................
   16b38:	00000000 00000001 00000001 00000000     ................
   16b48:	00000000 00000001 00000001 00000000     ................
   16b58:	00000001 00000000 00000000 00000000     ................
	...
   16b74:	00000001 00000001 00000001 00000001     ................
	...
   16b90:	00000001 00000000 00000000 00000000     ................
	...
   16ba8:	00000001 00000001 00000000 00000001     ................
   16bb8:	00000001 00000001 00000001 00000000     ................
	...
   16be0:	00000001 00000000 00000000 00000000     ................
   16bf0:	00000001 00000001 00000001 00000001     ................
   16c00:	00000000 00000001 00000001 00000001     ................
	...
   16c20:	00000001 00000000 00000000 00000000     ................
   16c30:	00000001 00000001 00000001 00000001     ................
	...
   16c4c:	00000001 00000000 00000000 00000000     ................
   16c5c:	00000000 00000001 00000000 00000001     ................
   16c6c:	00000000 00000001 00000000 00000000     ................
	...
   16c94:	00000001 00000001 00000001 00000001     ................
	...
   16cac:	00000001 00000001 00000000 00000001     ................
   16cbc:	00000001 00000000 00000000 00000001     ................
	...
   16cd4:	00000001 00000000 00000000 00000001     ................
	...
   16d04:	00000001 00000001 00000001 00000001     ................
   16d14:	00000001 00000001 00000001 00000001     ................
	...
   16d50:	00000001 00000001 00000001 00000001     ................
   16d60:	00000001 00000000 00000000 00000001     ................
	...
   16d7c:	00000001 00000000 00000000 00000001     ................
   16d8c:	00000000 00000001 00000001 00000001     ................
   16d9c:	00000000 00000001 00000000 00000000     ................
   16dac:	00000001 00000000 00000001 00000001     ................
   16dbc:	00000001 00000000 00000000 00000000     ................
   16dcc:	00000000 00000001 00000000 00000000     ................
   16ddc:	00000000 00000001 00000001 00000001     ................
	...
   16df4:	00000001 00000000 00000001 00000000     ................
	...
   16e0c:	00000001 00000001 00000000 00000001     ................
   16e1c:	00000000 00000001 00000000 00000000     ................
	...
   16e3c:	00000001 00000000 00000000 00000000     ................
   16e4c:	00000001 00000001 00000001 00000001     ................
	...
   16e68:	00000001 00000000 00000000 00000000     ................
	...
   16e80:	00000001 00000000 00000000 00000001     ................
   16e90:	00000001 00000001 00000001 00000001     ................
	...
   16ec0:	00000001 00000001 00000001 00000001     ................
	...
   16edc:	00000001 00000000 00000000 00000000     ................
   16eec:	00000000 00000001 00000001 00000001     ................
   16efc:	00000000 00000001 00000000 00000000     ................
   16f0c:	00000001 00000000 00000000 00000000     ................
   16f1c:	00000001 00000000 00000000 00000001     ................
   16f2c:	00000000 00000001 00000001 00000001     ................
   16f3c:	00000000 00000001 00000000 00000000     ................
   16f4c:	00000001 00000000 00000001 00000001     ................
   16f5c:	00000001 00000000 00000000 00000000     ................
   16f6c:	00000000 00000001 00000000 00000000     ................
   16f7c:	00000000 00000001 00000000 00000001     ................
	...
   16f9c:	00000001 00000001 00000001 00000000     ................
   16fac:	00000001 00000001 00000001 00000001     ................
	...
   16fc8:	00000001 00000000 00000000 00000000     ................
   16fd8:	00000000 00000001 00000001 00000000     ................
   16fe8:	00000000 00000001 00000001 00000001     ................
   16ff8:	00000001 00000000 00000000 00000000     ................
	...
   1701c:	00000001 00000001 00000000 00000000     ................
	...
   17048:	00000001 00000001 00000001 00000001     ................
   17058:	00000001 00000001 00000001 00000001     ................
	...
   17080:	00000001 00000000 00000001 00000001     ................
   17090:	00000001 00000000 00000001 00000001     ................
	...
   170b4:	00000001 00000000 00000000 00000001     ................
	...
   170d8:	00000001 00000001 00000000 00000000     ................
   170e8:	00000000 00000001 00000001 00000001     ................
	...
   17100:	00000001 00000000 00000001 00000000     ................
	...
   17118:	00000001 00000001 00000000 00000001     ................
   17128:	00000000 00000001 00000001 00000001     ................
	...
   17140:	00000001 00000000 00000001 00000000     ................
	...
   17158:	00000001 00000001 00000000 00000000     ................
   17168:	00000000 00000001 00000001 00000001     ................
	...
   17180:	00000001 00000000 00000000 00000000     ................
	...
   17198:	00000001 00000001 00000001 00000000     ................
   171a8:	00000001 00000000 00000000 00000000     ................
	...
   171c4:	00000001 00000000 00000001 00000001     ................
   171d4:	00000001 00000001 00000001 00000001     ................
	...
   171f4:	00000001 00000000 00000001 00000001     ................
   17204:	00000000 00000001 00000001 00000001     ................
   17214:	00000000 00000001 00000000 00000000     ................
	...
   17234:	00000001 00000000 00000001 00000000     ................
	...
   1724c:	00000001 00000001 00000000 00000001     ................
   1725c:	00000000 00000001 00000001 00000001     ................
	...
   17274:	00000001 00000001 00000001 00000000     ................
	...
   1728c:	00000001 00000001 00000000 00000000     ................
   1729c:	00000000 00000001 00000000 00000000     ................
	...
   172b4:	00000001 00000001 00000001 00000001     ................
   172c4:	00000000 00000001 00000001 00000001     ................
	...
   172f4:	00000001 00000001 00000001 00000001     ................
   17304:	00000001 00000001 00000001 00000000     ................
	...
   1731c:	00000001 00000000 00000000 00000000     ................
   1732c:	00000000 00000001 00000001 00000001     ................
   1733c:	00000000 00000001 00000000 00000000     ................
	...
   1735c:	00000001 00000000 00000000 00000001     ................
   1736c:	00000001 00000001 00000000 00000001     ................
   1737c:	00000000 00000001 00000001 00000000     ................
	...
   17394:	00000001 00000000 00000000 00000000     ................
   173a4:	00000000 00000001 00000001 00000001     ................
   173b4:	00000001 00000001 00000001 00000001     ................
	...
   173ec:	00000001 00000001 00000001 00000001     ................
   173fc:	00000001 00000001 00000001 00000001     ................
	...
   1742c:	00000001 00000001 00000001 00000001     ................
   1743c:	00000001 00000001 00000000 00000000     ................
	...
   17468:	00000001 00000000 00000000 00000000     ................
   17478:	00000001 00000001 00000001 00000001     ................
   17488:	00000000 00000001 00000001 00000001     ................
	...
   174a8:	00000001 00000000 00000000 00000001     ................
   174b8:	00000001 00000001 00000000 00000000     ................
   174c8:	00000000 00000001 00000001 00000000     ................
	...
   174e0:	00000001 00000000 00000000 00000000     ................
   174f0:	00000000 00000001 00000001 00000000     ................
   17500:	00000000 00000001 00000001 00000000     ................
	...
   1751c:	00000001 00000001 00000000 00000000     ................
   1752c:	00000001 00000001 00000001 00000000     ................
	...
   17558:	00000001 00000001 00000001 00000001     ................
   17568:	00000001 00000001 00000001 00000001     ................
	...
   17598:	00000001 00000001 00000001 00000000     ................
   175a8:	00000001 00000001 00000001 00000001     ................
	...
   175d8:	00000001 00000001 00000001 00000001     ................
	...
   175f0:	00000001 00000001 00000000 00000000     ................
	...
   17608:	00000001 00000001 00000000 00000000     ................
	...
   17620:	00000001 00000000 00000000 00000001     ................
   17630:	00000001 00000001 00000001 00000001     ................
   17640:	00000000 00000001 00000001 00000000     ................
	...
   1765c:	00000001 00000001 00000000 00000000     ................
   1766c:	00000001 00000001 00000001 00000001     ................
	...
   17688:	00000001 00000000 00000000 00000000     ................
   17698:	00000000 00000001 00000001 00000001     ................
	...
   176b0:	00000001 00000001 00000001 00000000     ................
	...
   176cc:	00000001 00000000 00000000 00000000     ................
   176dc:	00000001 00000001 00000000 00000001     ................
   176ec:	00000000 00000001 00000000 00000001     ................
	...
   17704:	00000001 00000000 00000001 00000000     ................
   17714:	00000001 00000000 00000001 00000000     ................
   17724:	00000000 00000001 00000000 00000001     ................
   17734:	00000000 00000001 00000000 00000001     ................
	...
   1774c:	00000001 00000000 00000001 00000000     ................
	...
   17764:	00000001 00000001 00000000 00000001     ................
   17774:	00000000 00000001 00000001 00000001     ................
	...
   1778c:	00000001 00000000 00000001 00000000     ................
	...
   177bc:	00000001 00000001 00000001 00000001     ................
   177cc:	00000000 00000001 00000001 00000001     ................
	...
   177ec:	00000001 00000000 00000000 00000000     ................
   177fc:	00000001 00000001 00000001 00000001     ................
   1780c:	00000001 00000001 00000001 00000001     ................
	...
   1783c:	00000001 00000001 00000000 00000000     ................
   1784c:	00000000 00000001 00000001 00000000     ................
	...
   17864:	00000001 00000001 00000001 00000000     ................
   17874:	00000000 00000001 00000001 00000001     ................
	...
   1788c:	00000001 00000001 00000001 00000000     ................
	...
   178a8:	00000001 00000000 00000000 00000000     ................
   178b8:	00000001 00000001 00000000 00000001     ................
   178c8:	00000000 00000001 00000001 00000001     ................
	...
   178e0:	00000001 00000000 00000001 00000000     ................
	...
   178f8:	00000001 00000001 00000000 00000001     ................
   17908:	00000000 00000001 00000001 00000001     ................
	...
   17920:	00000001 00000000 00000001 00000000     ................
	...
   17938:	00000001 00000001 00000000 00000001     ................
   17948:	00000000 00000001 00000001 00000001     ................
   17958:	00000001 00000000 00000001 00000000     ................
   17968:	00000001 00000000 00000000 00000000     ................
   17978:	00000000 00000001 00000001 00000000     ................
   17988:	00000000 00000001 00000001 00000001     ................
   17998:	00000001 00000000 00000000 00000001     ................
	...
   179b4:	00000001 00000000 00000001 00000001     ................
   179c4:	00000000 00000001 00000001 00000001     ................
   179d4:	00000000 00000001 00000000 00000000     ................
   179e4:	00000001 00000000 00000000 00000000     ................
	...
   179fc:	00000001 00000001 00000000 00000001     ................
   17a0c:	00000001 00000000 00000001 00000001     ................
	...
   17a24:	00000001 00000000 00000000 00000001     ................
	...
   17a3c:	00000001 00000001 00000000 00000001     ................
   17a4c:	00000001 00000000 00000001 00000001     ................
   17a5c:	00000001 00000001 00000000 00000000     ................
   17a6c:	00000000 00000001 00000001 00000001     ................
	...
   17a84:	00000001 00000001 00000000 00000000     ................
	...
   17a9c:	00000001 00000001 00000000 00000000     ................
   17aac:	00000001 00000001 00000001 00000001     ................
	...
   17ac4:	00000001 00000001 00000000 00000000     ................
	...
   17aec:	00000001 00000001 00000001 00000001     ................
   17afc:	00000001 00000001 00000001 00000001     ................
   17b0c:	00000000 00000001 00000000 00000000     ................
	...
   17b2c:	00000001 00000000 00000001 00000001     ................
   17b3c:	00000001 00000001 00000001 00000001     ................
   17b4c:	00000001 00000001 00000000 00000000     ................
	...
   17b74:	00000001 00000001 00000001 00000001     ................
   17b84:	00000001 00000001 00000001 00000001     ................
   17b94:	00000000 00000001 00000000 00000001     ................
	...
   17bb4:	00000001 00000000 00000001 00000000     ................
   17bc4:	00000001 00000001 00000001 00000001     ................
   17bd4:	00000001 00000001 00000000 00000001     ................
   17be4:	00000000 00000001 00000001 00000001     ................
	...
   17bfc:	00000001 00000000 00000001 00000000     ................
	...
   17c14:	00000001 00000001 00000000 00000001     ................
   17c24:	00000000 00000001 00000000 00000000     ................
	...
   17c3c:	00000001 00000000 00000001 00000000     ................
   17c4c:	00000001 00000001 00000000 00000000     ................
   17c5c:	00000000 00000001 00000000 00000001     ................
	...
   17c74:	00000001 00000001 00000001 00000001     ................
   17c84:	00000001 00000000 00000001 00000001     ................
   17c94:	00000001 00000001 00000001 00000000     ................
   17ca4:	00000000 00000001 00000000 00000001     ................
	...
   17cc0:	00000001 00000001 00000001 00000001     ................
   17cd0:	00000000 00000001 00000001 00000000     ................
   17ce0:	00000000 00000001 00000000 00000001     ................
   17cf0:	00000001 00000000 00000000 00000001     ................
   17d00:	00000001 00000000 00000001 00000000     ................
   17d10:	00000000 00000001 00000001 00000000     ................
   17d20:	00000000 00000001 00000000 00000000     ................
   17d30:	00000001 00000000 00000000 00000001     ................
   17d40:	00000001 00000000 00000001 00000001     ................
   17d50:	00000000 00000001 00000000 00000000     ................
   17d60:	00000000 00000001 00000000 00000000     ................
   17d70:	00000001 00000000 00000001 00000001     ................
	...
   17d88:	00000001 00000001 00000000 00000000     ................
	...
   17da0:	00000001 00000001 00000000 00000000     ................
   17db0:	00000001 00000001 00000001 00000001     ................
   17dc0:	00000000 00000001 00000001 00000001     ................
	...
   17de0:	00000001 00000000 00000000 00000000     ................
   17df0:	00000001 00000001 00000001 00000001     ................
   17e00:	00000000 00000001 00000001 00000001     ................
	...
   17e20:	00000001 00000000 00000000 00000000     ................
   17e30:	00000001 00000001 00000001 00000001     ................
   17e40:	00000000 00000001 00000001 00000001     ................
	...
   17e60:	00000001 00000001 00000000 00000000     ................
   17e70:	00000001 00000001 00000001 00000001     ................
	...
   17e88:	00000001 00000001 00000000 00000000     ................
	...
   17ea0:	00000001 00000001 00000000 00000001     ................
   17eb0:	00000001 00000001 00000001 00000001     ................
	...
   17ec8:	00000001 00000000 00000001 00000000     ................
	...
   17ee0:	00000001 00000001 00000000 00000001     ................
   17ef0:	00000000 00000001 00000001 00000000     ................
   17f00:	00000000 00000001 00000001 00000000     ................
   17f10:	00000001 00000000 00000000 00000001     ................
   17f20:	00000001 00000000 00000001 00000001     ................
   17f30:	00000000 00000001 00000001 00000000     ................
   17f40:	00000000 00000001 00000000 00000000     ................
   17f50:	00000001 00000000 00000000 00000001     ................
   17f60:	00000001 00000001 00000001 00000001     ................
   17f70:	00000000 00000001 00000001 00000000     ................
	...
   17f90:	00000001 00000000 00000000 00000001     ................
   17fa0:	00000001 00000001 00000001 00000001     ................
   17fb0:	00000001 00000001 00000001 00000000     ................
	...
   17fe4:	00000001 00000001 00000001 00000001     ................
   17ff4:	00000001 00000001 00000001 00000001     ................
   18004:	00000001 00000001 00000000 00000000     ................
	...
   1802c:	00000001 00000001 00000001 00000001     ................
   1803c:	00000001 00000001 00000001 00000001     ................
	...
   18064:	00000001 00000000 00000001 00000001     ................
	...
   1807c:	00000001 00000001 00000000 00000001     ................
	...
   18094:	00000001 00000001 00000000 00000000     ................
   180a4:	00000001 00000001 00000001 00000001     ................
	...
   180bc:	00000001 00000001 00000001 00000000     ................
	...
   180d4:	00000001 00000001 00000000 00000000     ................
   180e4:	00000000 00000001 00000001 00000001     ................
	...
   180fc:	00000001 00000001 00000001 00000001     ................
   1810c:	00000001 00000000 00000001 00000001     ................
	...
   18124:	00000001 00000000 00000000 00000001     ................
	...
   1813c:	00000001 00000000 00000001 00000001     ................
   1814c:	00000001 00000000 00000001 00000001     ................
   1815c:	00000000 00000001 00000000 00000000     ................
   1816c:	00000000 00000001 00000000 00000000     ................
   1817c:	00000001 00000000 00000001 00000001     ................
   1818c:	00000001 00000000 00000001 00000001     ................
   1819c:	00000000 00000001 00000001 00000001     ................
   181ac:	00000000 00000001 00000000 00000000     ................
   181bc:	00000001 00000000 00000000 00000000     ................
   181cc:	00000001 00000000 00000001 00000001     ................
   181dc:	00000000 00000001 00000001 00000001     ................
   181ec:	00000000 00000001 00000001 00000001     ................
   181fc:	00000001 00000000 00000001 00000001     ................
   1820c:	00000001 00000001 00000000 00000000     ................
   1821c:	00000001 00000001 00000001 00000000     ................
	...
   18234:	00000001 00000001 00000000 00000001     ................
   18244:	00000000 00000001 00000001 00000001     ................
	...
   1825c:	00000001 00000000 00000001 00000000     ................
	...
   18274:	00000001 00000001 00000000 00000000     ................
   18284:	00000001 00000001 00000001 00000001     ................
   18294:	00000000 00000001 00000001 00000001     ................
   182a4:	00000001 00000000 00000000 00000000     ................
   182b4:	00000001 00000000 00000000 00000001     ................
   182c4:	00000000 00000001 00000001 00000001     ................
   182d4:	00000001 00000001 00000001 00000000     ................
   182e4:	00000001 00000000 00000001 00000001     ................
	...
   18300:	00000001 00000001 00000001 00000000     ................
   18310:	00000000 00000001 00000001 00000001     ................
   18320:	00000000 00000001 00000001 00000001     ................
   18330:	00000001 00000000 00000000 00000001     ................
   18340:	00000001 00000000 00000000 00000000     ................
   18350:	00000000 00000001 00000001 00000000     ................
   18360:	00000001 00000001 00000001 00000001     ................
   18370:	00000001 00000000 00000000 00000001     ................
   18380:	00000000 00000001 00000000 00000000     ................
   18390:	00000000 00000001 00000001 00000000     ................
   183a0:	00000001 00000001 00000001 00000001     ................
   183b0:	00000001 00000000 00000000 00000001     ................
	...
   183cc:	00000001 00000001 00000001 00000001     ................
   183dc:	00000000 00000001 00000001 00000001     ................
	...
   183fc:	00000001 00000000 00000001 00000001     ................
   1840c:	00000001 00000001 00000001 00000001     ................
   1841c:	00000000 00000001 00000001 00000000     ................
   1842c:	00000001 00000000 00000000 00000000     ................
   1843c:	00000001 00000001 00000000 00000001     ................
   1844c:	00000000 00000001 00000001 00000001     ................
	...
   18464:	00000001 00000001 00000001 00000000     ................
	...
   1847c:	00000001 00000001 00000001 00000000     ................
   1848c:	00000000 00000001 00000000 00000000     ................
	...
   184a4:	00000001 00000001 00000001 00000000     ................
   184b4:	00000001 00000001 00000001 00000001     ................
   184c4:	00000001 00000001 00000001 00000001     ................
	...
   184f4:	00000001 00000001 00000001 00000001     ................
   18504:	00000001 00000001 00000001 00000001     ................
	...
   18524:	00000001 00000001 00000000 00000000     ................
   18534:	00000001 00000001 00000001 00000001     ................
   18544:	00000001 00000000 00000001 00000001     ................
	...
   18564:	00000001 00000001 00000000 00000000     ................
   18574:	00000001 00000001 00000001 00000001     ................
	...
   1858c:	00000001 00000001 00000000 00000000     ................
   1859c:	00000000 00000001 00000001 00000001     ................
   185ac:	00000001 00000000 00000001 00000000     ................
   185bc:	00000001 00000000 00000001 00000001     ................
   185cc:	00000000 00000001 00000000 00000001     ................
   185dc:	00000000 00000001 00000001 00000001     ................
   185ec:	00000001 00000000 00000001 00000000     ................
   185fc:	00000001 00000000 00000001 00000000     ................
   1860c:	00000000 00000001 00000000 00000001     ................
	...

00018644 <H>:
   18644:	fffc5159 ffff7a6b 0000bdfd fffffb6c     YQ..kz......l...
   18654:	ffffde74 000005cd 0000051e fffffe9b     t...............
   18664:	fffca7a0 ffff1a6b 0000bcec 00000ce1     ....k...........
   18674:	ffffdc04 00000305 000005ef fffffef2     ................
   18684:	fffd2e12 fffebcb5 0000b2d6 00001f4a     ............J...
   18694:	ffffdb11 ffffffda 0000068a ffffff5e     ............^...
   186a4:	fffde29f fffe65ec 00009f65 000031dc     .....e..e....1..
   186b4:	ffffdbc6 fffffc68 000006e4 ffffffda     ....h...........
   186c4:	fffec0dc fffe1ac7 000082af 000043bb     .............C..
   186d4:	ffffde42 fffff8d2 000006f3 00000063     B...........c...
   186e4:	ffffc200 fffddfde 00005d3c 000053ff     ........<]...S..
   186f4:	ffffe290 fffff542 000006af 000000f5     ....B...........
   18704:	0000dcff fffdb96d 0000300a 000061be     ....m....0...a..
   18714:	ffffe8a3 fffff1e2 00000614 00000187     ................
   18724:	000206c8 fffdab18 fffffc8b 00006c18     .............l..
   18734:	fffff05d ffffeee0 00000522 00000215     ].......".......
   18744:	00033299 fffdb7b2 ffffc49d 00007242     .2..........Br..
   18754:	fffff984 ffffec68 000003db 00000296     ....h...........
   18764:	00045274 fffde10b ffff8a80 00007392     tR...........s..
   18774:	000003ca ffffeaa5 0000024a 00000303     ........J.......
   18784:	000557ad fffe27bf ffff50c3 00006f89     .W...'...P...o..
   18794:	00000ecd ffffe9bc 00000078 00000355     ........x...U...
   187a4:	00063389 fffe8b15 ffff1a28 000065df     .3......(....e..
   187b4:	00001a1a ffffe9cc fffffe78 00000386     ........x.......
   187c4:	0006d7f5 ffff08e7 fffee98b 00005686     .............V..
   187d4:	0000252c ffffeaea fffffc5c 00000391     ,%......\.......
   187e4:	00073838 ffff9da0 fffec1c2 000041b8     88...........A..
   187f4:	00002f7a ffffed21 fffffa3c 00000372     z/..!...<...r...
   18804:	000749b1 00004442 fffea579 000027f3     .I..BD..y....'..
   18814:	00003874 fffff06f fffff831 00000326     t8..o...1...&...
   18824:	00070486 0000f688 fffe970c 000009fd     ................
   18834:	00003f91 fffff4c4 fffff656 000002ae     .?......V.......
   18844:	00066443 0001ad0c fffe9867 ffffe8e3     Cd......g.......
   18854:	0000444f fffffa05 fffff4c5 0000020a     OD..............
   18864:	0005685b 00025f8d fffeaae2 ffffc5eb     [h..._..........
   18874:	0000463e 00000005 fffff398 0000013f     >F..........?...
   18884:	0004148b 00030540 fffecf24 ffffa292     ....@...$.......
   18894:	00004507 00000690 fffff2e7 00000053     .E..........S...
   188a4:	0002710e 00039529 ffff050e ffff807d     .q..).......}...
   188b4:	00004071 00000d60 fffff2c4 ffffff4f     q@..`.......O...
   188c4:	00008a9e 00040689 ffff4ba6 ffff6164     .........K..da..
   188d4:	00003866 0000142b fffff33f fffffe3a     f8..+...?...:...
   188e4:	fffe7246 00045148 ffffa113 ffff4705     Fr..HQ.......G..
   188f4:	00002cf9 00001a9d fffff45e fffffd23     .,......^...#...
   18904:	fffc3ced 00046e6c 0000029d ffff330a     .<..ln.......3..
   18914:	00001e65 00002060 fffff624 fffffc15     e...` ..$.......
   18924:	fffa02bc 00045881 00006cbd ffff26f7     .....X...l...&..
   18934:	00000d14 0000251f fffff88a fffffb1f     .....%..........
   18944:	fff7de3d 00040c01 0000db33 ffff2415     =.......3....$..
   18954:	fffff99a 0000288a fffffb81 fffffa4d     .....(......M...
   18964:	fff5eb51 000387ab 00014927 ffff2b57     Q.......'I..W+..
   18974:	ffffe4ad 00002a58 fffffef3 fffff9ae     ....X*..........
   18984:	fff44600 0002ccc5 0001b15c ffff3d4e     .F......\...N=..
   18994:	ffffcf2d 00002a50 000002bf fffff94d     -...P*......M...
   189a4:	fff30926 0001df46 00020e5f ffff5a17     &...F..._....Z..
   189b4:	ffffba0f 00002846 000006c1 fffff934     ....F(......4...
   189c4:	fff24d14 0000c5e6 00025aca ffff814c     .M.......Z..L...
   189d4:	ffffa65d 00002427 00000ace fffff96b     ]...'$......k...
   189e4:	fff22630 ffff8a0b 00029183 ffffb202     0&..............
   189f4:	ffff9524 00001df3 00000eb5 fffff9f7     $...............
   18a04:	fff2a3a2 fffe3790 0002ae02 ffffeac4     .....7..........
   18a14:	ffff876e 000015c7 00001243 fffffad9     n.......C.......
   18a24:	fff3ce27 fffcdc76 0002ac96 0000299b     '...v........)..
   18a34:	ffff7e31 00000bd8 00001546 fffffc0c     1~......F.......
   18a44:	fff5a713 fffb8864 00028aa2 00006c1b     ....d........l..
   18a54:	ffff7a44 00000077 0000178d fffffd8b     Dz..w...........
   18a64:	fff82796 fffa4c16 000246d6 0000af73     .'...L...F..s...
   18a74:	ffff7c50 fffff40b 000018eb ffffff4a     P|..........J...
   18a84:	fffb4056 fff938a4 0001e162 0000f087     V@...8..b.......
   18a94:	ffff84c5 ffffe712 0000193b 00000139     ........;...9...
   18aa4:	fffed965 fff85ec3 00015c0c 00012c0e     e....^...\...,..
   18ab4:	ffff93d1 ffffda1d 00001862 00000346     ........b...F...
   18ac4:	0002d298 fff7cdeb 0000ba48 00015eb9     ........H....^..
   18ad4:	ffffa953 ffffcdc9 0000164e 0000055b     S.......N...[...
   18ae4:	0007045c fff79385 00000132 00018557     \.......2...W...
   18af4:	ffffc4dd ffffc2b9 000012fd 0000075e     ............^...
   18b04:	000b40de fff7ba15 ffff3775 00019cff     .@......u7......
   18b14:	ffffe5ac ffffb990 00000e7b 00000937     ........{...7...
   18b24:	000f55af fff84879 fffe651d 0001a33b     .U..yH...e..;...
   18b34:	00000aab ffffb2e8 000008e2 00000aca     ................
   18b44:	00130dbb fff94146 fffd9359 0001962e     ....FA..Y.......
   18b54:	0000327d ffffaf4b 0000025e 00000c00     }2..K...^.......
   18b64:	0016338d fffaa23f fffccc24 000174bb     .3..?...$....t..
   18b74:	00005b81 ffffaf2a fffffb29 00000cc0     .[..*...).......
   18b84:	001893d3 fffc6408 fffc19e1 00013ea0     .....d.......>..
   18b94:	000083e3 ffffb2d8 fffff388 00000cf8     ................
   18ba4:	0019fff8 fffe7a06 fffb86e1 0000f491     .....z..........
   18bb4:	0000a9ac ffffba7e ffffebce 00000c99     ....~...........
   18bc4:	001a50c9 0000d27d fffb1ceb 00009841     .P..}.......A...
   18bd4:	0000cad8 ffffc61c ffffe456 00000b99     ........V.......
   18be4:	001968fa 000356f3 fffae4b9 00002c67     .h...V......g,..
   18bf4:	0000e56b ffffd580 ffffdd81 000009f7     k...............
   18c04:	0017376d 0005ecd3 fffae56f ffffb4b7     m7......o.......
   18c14:	0000f78e ffffe848 ffffd7ae 000007b7     ....H...........
   18c24:	0013b919 0008764c fffb242b ffff35c3     ....Lv..+$...5..
   18c34:	0000ffa3 fffffddf ffffd33c 000004e8     ........<.......
   18c44:	000efa7b 000ad372 fffba391 fffeb4e5     {...r...........
   18c54:	0000fc60 00001581 ffffd07e 0000019d     `.......~.......
   18c64:	0009185f 000ce38e fffc6374 fffe3806     _.......tc...8..
   18c74:	0000ece7 00002e41 ffffcfbe fffffdf4     ....A...........
   18c84:	00024002 000e8697 fffd6098 fffdc567     .@.......`..g...
   18c94:	0000d0da 0000470f ffffd130 fffffa10     .....G..0.......
   18ca4:	fffaae6b 000f9ec7 fffe9492 fffd635f     k..........._c..
   18cb4:	0000a866 00005ec2 ffffd4f7 fffff61a     f....^..........
   18cc4:	fff2aef2 00101234 fffff5cc fffd180e     ....4...........
   18cd4:	00007457 00007423 ffffdb19 fffff240     Wt..#t......@...
   18ce4:	ffea9904 000fcc65 000177ad fffce912     ....e....w......
   18cf4:	00003611 000085fd ffffe382 ffffeeb5     .6..............
   18d04:	ffe2cd15 000ebfc6 00030af1 fffcdb35     ............5...
   18d14:	ffffef97 00009328 ffffee02 ffffeba7     ....(...........
   18d24:	ffdbb0e3 000ce6ee 00049e1b fffcf221     ............!...
   18d34:	ffffa379 00009a9b fffffa49 ffffe948     y.......I...H...
   18d44:	ffd5ab24 000a459c 00061e19 fffd301c     $....E.......0..
   18d54:	ffff54c6 00009b7b 000007ed ffffe7c3     .T..{...........
   18d64:	ffd11ebf 0006e963 00077703 fffd95c9     ....c....w......
   18d74:	ffff06f4 00009527 0000166a ffffe73c     ....'...j...<...
   18d84:	ffce65c8 0002e9ea 000894f6 fffe2202     .e..........."..
   18d94:	fffebdbc 00008745 00002526 ffffe7d2     ....E...&%......
   18da4:	ffcdcc6b fffe68b9 00096506 fffed1b5     k....h...e......
   18db4:	fffe7cf5 000071d0 00003377 ffffe994     .|...q..w3......
   18dc4:	ffcf8c12 fff9908f 0009d631 ffff9fe2     ........1.......
   18dd4:	fffe4868 0000551c 000040a7 ffffec88     hH...U...@......
   18de4:	ffd3c6ed fff4943b 0009da5b 000085a8     ....;...[.......
   18df4:	fffe23a5 000031d8 00004c02 fffff0a6     .#...1...L......
   18e04:	ffda8432 ffefacf2 00096739 00017a70     2.......9g..pz..
   18e14:	fffe11cd 00000914 000054d8 fffff5d5     .........T......
   18e24:	ffe3ad47 ffeb183a 00087723 00027427     G...:...#w..'t..
   18e34:	fffe156c ffffdc38 00005a86 fffffbef     l...8....Z......
   18e44:	ffef0c0b ffe71573 000709c3 00036798     ....s........g..
   18e54:	fffe3044 ffffacfb 00005c86 000002be     D0.......\......
   18e64:	fffc4a73 ffe3e303 00052493 000448d5     sJ.......$...H..
   18e74:	fffe632f ffff7d55 00005a6e 00000a03     /c..U}..nZ......
   18e84:	000af398 ffe1bb62 0002d325 00050bb5     ....b...%.......
   18e94:	fffeadfc ffff4f70 000053fd 00001170     ....pO...S..p...
   18ea4:	001a7655 ffe0d1fc 00002723 0005a45e     Uv......#'..^...
   18eb4:	ffff0f5e ffff2590 00004922 000018b0     ^....%.."I......
   18ec4:	002a2966 ffe1502a fffd380c 000607d7     f)*.*P...8......
   18ed4:	ffff84e0 ffff01fa 000039fe 00001f68     .........9..h...
   18ee4:	00395116 ffe35259 fffa22a6 00062c9e     .Q9.YR..."...,..
   18ef4:	00000aea fffee6da 000026e8 0000253e     .........&..>%..
   18f04:	00472643 ffe6e589 fff70826 00060b34     C&G.....&...4...
   18f14:	00009cd5 fffed625 0000106e 000029d9     ....%...n....)..
   18f24:	0052de95 ffec0544 fff40d0d 00059ea6     ..R.D...........
   18f34:	0001350b fffed180 fffff751 00002cea     .5......Q....,..
   18f44:	005bb59a fff29a34 fff157d0 0004e4f8     ..[.4....W......
   18f54:	0001cd30 fffeda24 ffffdc80 00002e2a     0...$.......*...
   18f64:	0060f678 fffa7978 ffef0f40 0003df7f     x.`.xy..@.......
   18f74:	00025e66 fffef0c6 ffffc117 00002d67     f^..........g-..
   18f84:	006205cf 000364c5 ffed58d4 0002931a     ..b..d...X......
   18f94:	0002e18b ffff1587 ffffa64a 00002a7f     ........J....*..
   18fa4:	005e6b5a 000d0b6f ffec56df 0001083e     Zk^.o....V..>...
   18fb4:	00034f8c ffff47e2 ffff8d63 0000256a     .O...G..c...j%..
   18fc4:	0055dae3 00170c5a ffec26bd ffff4ae6     ..U.Z....&...J..
   18fd4:	0003a1b8 ffff86a6 ffff77ad 00001e39     .........w..9...
   18fe4:	00483c08 0020f8d0 ffecdf1e fffd6a47     .<H... .....Gj..
   18ff4:	0003d219 ffffcffc ffff6667 00001518     ........gf......
   19004:	0035b070 002a582c ffee8e71 fffb786c     p.5.,X*.q...lx..
   19014:	0003dbc4 00002166 ffff5ab5 00000a4c     ....f!...Z..L...
   19024:	001e97f7 0032ac4d fff1399b fff9899b     ....M.2..9......
   19034:	0003bb2d 000077dd ffff558e fffffe38     -....w...U..8...
   19044:	00039285 00397695 fff4daf4 fff7b394     .....v9.........
   19054:	00036e68 0000cfdb ffff57ad fffff151     hn.......W..Q...
   19064:	ffe57f46 003e3d60 fff961b5 fff60cb8     F...`=>..a......
   19074:	0002f561 00012589 ffff6186 ffffe423     a....%...a..#...
   19084:	ffc5790d 004091a8 fffeb1d3 fff4ab11     .y....@.........
   19094:	00025201 000174e1 ffff7334 ffffd747     .R...t..4s..G...
   190a4:	ffa4cfea 004014aa 0004a460 fff3a350     ......@.`...P...
   190b4:	0001883a 0001b9dc ffff8c7b ffffcb5c     :.......{...\...
   190c4:	ff84ffeb 003c7d39 000b086b fff307c4     ....9}<.k.......
   190d4:	00009e03 0001f0a1 ffffacbb ffffc105     ................
   190e4:	ff67a547 00359c8b 0011a463 fff2e75d     G.g...5.c...]...
   190f4:	ffff9b33 000215ba ffffd2f5 ffffb8da     3...............
   19104:	ff4e6e43 002b623f 001837f8 fff34cc4     CnN.?b+..7...L..
   19114:	fffe8948 00022643 fffffdce ffffb365     H...C&......e...
   19124:	ff3b0b40 001ddf4e 001e7e6f fff43d94     @.;.N...o~...=..
   19134:	fffd7313 0002201c 00002b9b ffffb118     .s... ...+......
   19144:	ff2f1d8a 000d47ce 00243145 fff5b9c5     ../..G..E1$.....
   19154:	fffc6453 00020208 00005a71 ffffb246     Sd......qZ..F...
   19164:	ff2c2584 fff9f343 00290b21 fff7bb49     .%,.C...!.).I...
   19174:	fffb6932 0001cbd5 00008833 ffffb71b     2i......3.......
   19184:	ff3370f7 ffe45b75 002ccae3 fffa35f3     .p3.u[....,..5..
   19194:	fffa8dc3 00017e6c 0000b2ae ffffbf99     ....l~..........
   191a4:	ff460a42 ffcd19c0 002f36b2 fffd1798     B.F......6/.....
   191b4:	fff9dd6c 00011bdb 0000d7b2 ffffcb94     l...............
   191c4:	ff64a92b ffb4e2cd 00301eec 0000488d     +.d.......0..H..
   191d4:	fff96253 0000a74f 0000f52f ffffdab0     Sb..O.../.......
   191e4:	ff8fa62a ff9c80f4 002f60cf 0003ac5b     *........`/.[...
   191f4:	fff924d2 000024fc 00010951 ffffec63     .$...$..Q...c...
   19204:	ffc6f0b5 ff84cd47 002ce8ab 000722c4     ....G.....,.."..
   19214:	fff92af6 ffff99ff 0001129b fffffff8     .*..............
   19224:	000a0954 ff6ea7ae 0028b392 000a88fe     T.....n...(.....
   19234:	fff97815 ffff0c26 00011002 00001495     .x..&...........
   19244:	0057ffc7 ff5aee39 0022d05a 000dbb27     ..W.9.Z.Z.".'...
   19254:	fffa0c7b fffe81b5 00010102 00002948     {...........H)..
   19264:	00af759c ff4a7424 001b5fdb 001095d0     .u..$tJ.._......
   19274:	fffae53e fffe0120 0000e5ad 00003d0b     >... ........=..
   19284:	010ea559 ff3df8d9 00129469 0012f7a0     Y.....=.i.......
   19294:	fffbfc38 fffd90b4 0000beb6 00004ed6     8............N..
   192a4:	01736e0e ff361f62 0008b071 0014c2f3     .ns.b.6.q.......
   192b4:	fffd4824 fffd3648 00008d6f 00005dae     $H..H6..o....]..
   192c4:	01db6312 ff3366b8 fffe0456 0015df59     .c...f3.V...Y...
   192d4:	fffebcea fffcf6eb 000053c1 000068ae     .........S...h..
   192e4:	0243df68 ff362341 fff2eb89 00163af0     h.C.A#6......:..
   192f4:	00004c18 fffcd694 0000141f 00006f1d     .L...........o..
   19304:	02aa1c13 ff3e79f1 ffe7c90f 0015cb74     .....y>.....t...
   19314:	0001e577 fffcd7e2 ffffd166 00007074     w.......f...tp..
   19324:	030b4896 ff4c5d34 ffdd037e 00148f01     .H..4]L.~.......
   19334:	000377c5 fffcfbe6 ffff8ebe 00006c6f     .w..........ol..
   19344:	0364a486 ff5f8bfc ffd300b6 00128c71     ..d..._.....q...
   19354:	0004f185 fffd4204 ffff4f6f 00006312     .....B..oO...c..
   19364:	03b39941 ff7792ed ffca2180 000fd351     A.....w..!..Q...
   19374:	000641da fffda7e7 ffff16b6 000054ac     .A...........T..
   19384:	03f5d293 ff93cfc3 ffc2bd42 000c7b62     ........B...b{..
   19394:	00075966 fffe2992 fffee792 000041d9     fY...).......A..
   193a4:	04295545 ffb376c8 ffbd1e0b 0008a3b5     EU)..v..........
   193b4:	00082b1a fffec185 fffec493 00002b7d     .+..........}+..
   193c4:	044c9295 ffd59a35 ffb97d2d 0004715c     ..L.5...-}..\q..
   193d4:	0008aced ffff6901 fffeafb2 000012b2     .....i..........
   193e4:	045e779f fff9331a ffb80087 00000dc7     .w^..3..........
   193f4:	0008d876 0000185d fffeaa2a fffff8c2     v...]...*.......
   19404:	045e779f 001d2b6c ffb8b8ae fffba4e4     .w^.l+..........
   19414:	0008ab4b 0000c774 fffeb462 ffffdf09     K...t...b.......
   19424:	044c9295 004068b5 ffbb9ffe fff76307     ..L..h@......c..
   19434:	00082730 00016e16 fffecde1 ffffc6e5     0'...n..........
   19444:	04295545 0061d7b7 ffc09ad0 fff372cc     EU)...a......r..
   19454:	00075204 00020484 fffef557 ffffb19c     .R......W.......
   19464:	03f5d293 00807702 ffc778de ffeffb0d     .....w...x......
   19474:	00063567 000283e0 ffff28b0 ffffa047     g5.......(..G...
   19484:	03b39941 009b60c8 ffcff77b ffed1d26     A....`..{...&...
   19494:	0004de31 0002e68d ffff653e ffff93be     1.......>e......
   194a4:	0364a486 00b1d379 ffd9c4a6 ffeaf379     ..d.y.......y...
   194b4:	00035bc0 00032874 ffffa7df ffff8c92     .[..t(..........
   194c4:	030b4896 00c338bc ffe482b7 ffe99059     .H...8......Y...
   194d4:	0001bf20 00034731 ffffed35 ffff8b02      ...1G..5.......
   194e4:	02aa1c13 00cf2a79 ffefcc8d ffe8fd64     ....y*......d...
   194f4:	00001a32 0003422a 000031d3 ffff8efd     2...*B...1......
   19504:	0243df68 00d575b4 fffb39f5 ffe93b43     h.C..u...9..C;..
   19514:	fffe7ec3 00031a85 00007278 ffff9825     .~......xr..%...
   19524:	01db6312 00d61b46 00066416 ffea41e9     .c..F....d...A..
   19534:	fffcfdad 0002d306 0000ac31 ffffa5d9     ........1.......
   19544:	01736e0e 00d14e59 0010e9b2 ffec012e     .ns.YN..........
   19554:	fffba61c 00026fdc 0000dc82 ffffb743     .....o......C...
   19564:	010ea559 00c770de 001a72f9 ffee61cd     Y....p...r...a..
   19574:	fffa84dd 0001f65b 00010182 ffffcb65     ....[.......e...
   19584:	00af759c 00b90e38 0022b4df fff146ae     .u..8....."..F..
   19594:	fff9a3e5 00016cae 000119ec ffffe128     .....l......(...
   195a4:	0057ffc7 00a6d457 002973b1 fff48e61     ..W.W....s).a...
   195b4:	fff909f2 0000d978 00012528 fffff771     ....x...(%..q...
   195c4:	000a0954 00918bb6 002e84f4 fff814c4     T...............
   195d4:	fff8ba64 00004384 00012346 00000d29     d....C..F#..)...
   195e4:	ffc6f0b5 007a0e94 0031d066 fffbb4b3     ......z.f.1.....
   195f4:	fff8b53d ffffb16c 000114f7 00002153     =...l.......S!..
   19604:	ff8fa62a 00613fd0 0033502d ffff49a9     *....?a.-P3..I..
   19614:	fff8f74b ffff2948 0000fb79 00003312     K...H)..y....3..
   19624:	ff64a92b 004801dc 00331037 0002b150     +.d...H.7.3.P...
   19634:	fff97a74 fffeb072 0000d880 000041b3     tz..r........A..
   19644:	ff460a42 002f2e22 00312ce3 0005ccdb     B.F."./..,1.....
   19654:	fffa3624 fffe4b4b 0000ae17 00004cb3     $6..KK.......L..
   19664:	ff3370f7 00178d33 002dd107 00088227     .p3.3.....-.'...
   19674:	fffb1fd1 fffdfd1a 00007e86 000053c5     .........~...S..
   19684:	ff2c2584 0001d00c 00293368 000abc99     .%,.....h3).....
   19694:	fffc2b8f fffdc7f2 00004c2f 000056cf     .+....../L...V..
   196a4:	ff2f1d8a ffee8ab4 002393e8 000c6daf     ../.......#..m..
   196b4:	fffd4ca7 fffdacac 0000196e 000055e9     .L......n....U..
   196c4:	ff3b0b40 ffde3047 001d3863 000d8d48     @.;.G0..c8..H...
   196d4:	fffe7638 fffdaaf3 ffffe885 00005159     8v..........YQ..
   196e4:	ff4e6e43 ffd11099 0016698b 000e199b     CnN......i......
   196f4:	ffff9bc3 fffdc15a ffffbb77 0000498b     ....Z...w....I..
   19704:	ff67a547 ffc75766 000f6fce 000e16e7     G.g.fW...o......
   19714:	0000b1b5 fffded7b ffff93fd 00003f0b     ....{........?..
   19724:	ff84ffeb ffc10d03 00089069 000d8eee     ........i.......
   19734:	0001addc fffe2c26 ffff7375 0000327a     ....&,..us..z2..
   19744:	ffa4cfea ffbe1873 00020ad8 000c902e     ....s...........
   19754:	000287b8 fffe7992 ffff5ad7 0000248a     .....y...Z...$..
   19764:	ffc5790d ffbe42ae fffc16a3 000b2cfb     .y...B.......,..
   19774:	000338c7 fffed18f ffff4aaf 000015ec     .8.......J......
   19784:	ffe57f46 ffc13aee fff6e1a5 00097a7f     F....:.......z..
   19794:	0003bca7 ffff2fc0 ffff4323 00000751     ...../..#C..Q...
   197a4:	00039285 ffc69bb5 fff28ee2 00078fa2     ................
   197b4:	00041124 ffff8fcd ffff43f3 fffff95e     $........C..^...
   197c4:	001e97f7 ffcdf057 ffef35d5 000583fa     ....W....5......
   197d4:	00043628 ffffed97 ffff4c87 ffffec9f     (6.......L......
   197e4:	0035b070 ffd6bab8 ffece251 00036ec3     p.5.....Q....n..
   197f4:	00042d9b 0000455b ffff5bf9 ffffe191     .-..[E...[......
   19804:	00483c08 ffe07908 ffeb94de 000165f0     .<H..y.......e..
   19814:	0003fb29 000093df ffff7127 ffffd88e     ).......'q......
   19824:	0055dae3 ffeaab3a ffeb4381 ffff7d53     ..U.:....C..S}..
   19834:	0003a3f9 0000d686 ffff8ac3 ffffd1d8     ................
   19844:	005e6b5a fff4d7ff ffebdaf4 fffdc5f1     Zk^.............
   19854:	00032e5d 00010b63 ffffa767 ffffcd8f     ]...c...g.......
   19864:	006205cf fffe911c ffed401b fffc4d87     ..b......@...M..
   19874:	0002a175 00013144 ffffc5a3 ffffcbb5     u...D1..........
   19884:	0060f678 000776fb ffef51c0 fffb1e2b     x.`..v...Q..+...
   19894:	000204d4 000147b0 ffffe411 ffffcc34     .....G......4...
   198a4:	005bb59a 000f3b5a fff1ea64 fffa3e2c     ..[.Z;..d...,>..
   198b4:	00016026 00014ede 00000161 ffffced9     &`...N..a.......
   198c4:	0052de95 0015a308 fff4e220 fff9b016     ..R..... .......
   198d4:	0000bad8 000147a8 00001c6c ffffd360     .....G..l...`...
   198e4:	00472643 001a86c1 fff8107e fff972de     C&G.....~....r..
   198f4:	00001bcd 00013374 00003436 ffffd973     ....t3..64..s...
   19904:	00395116 001dd31e fffb4e30 fff98232     .Q9.....0N..2...
   19914:	ffff891f 0001141b 000047fc ffffe0b3     .........G......
   19924:	002a2966 001f87b5 fffe769a fff9d6ec     f)*......v......
   19934:	ffff07e9 0000ebca 00005733 ffffe8b8     ........3W......
   19944:	001a7655 001fb581 00016922 fffa6795     Uv......"i...g..
   19954:	fffe9c25 0000bce7 00006190 fffff11d     %........a......
   19964:	000af398 001e7cb0 00040a38 fffb28fa     .....|..8....(..
   19974:	fffe4897 000089ef 00006702 fffff97f     .H.......g......
   19984:	fffc4a73 001c09ff 00064415 fffc0ec5     sJ.......D......
   19994:	fffe0ec5 0000555b 000067ae 0000017f     ....[U...g......
   199a4:	ffef0c0b 001893c1 0008072d fffd0c1e     ........-.......
   199b4:	fffdeeff 00002184 000063ec 000008d1     .....!...c......
   199c4:	ffe3ad47 001456c2 00094a50 fffe143b     G....V..PJ..;...
   199d4:	fffde877 fffff08d 00005c3e 00000f30     w.......>\..0...
   199e4:	ffda8432 000f9324 000a0a8e ffff1aee     2...$...........
   199f4:	fffdf95c ffffc44b 00005146 00001469     \...K...FQ..i...
   19a04:	ffd3c6ed 000a8959 000a4ac9 0000151a     ....Y....J......
   19a14:	fffe1f05 ffff9e40 000043bf 0000185b     ....@....C..[...
   19a24:	ffcf8c12 0005775c 000a1322 0000f918     ....\w..".......
   19a34:	fffe561e ffff7f88 00003470 00001af3     .V......p4......
   19a44:	ffcdcc6b 0000963e 0009702e 0001befe     k...>....p......
   19a54:	fffe9adb ffff68da 00002425 00001c30     .....h..%$..0...
   19a64:	ffce65c8 fffc181f 0008720d 000260d4     .e.......r...`..
   19a74:	fffee929 ffff5a84 000013a3 00001c20     )....Z...... ...
   19a84:	ffd11ebf fff82696 00072b70 0002daac     .....&..p+......
   19a94:	ffff3ce4 ffff5476 000003a5 00001ade     .<..vT..........
   19aa4:	ffd5ab24 fff4e1a7 0005b094 00032aa2     $............*..
   19ab4:	ffff9200 ffff5644 fffff4cf 00001891     ....DV..........
   19ac4:	ffdbb0e3 fff25f2b 00041645 000350c7     ....+_..E....P..
   19ad4:	ffffe4ba ffff5f35 ffffe7aa 00001566     ....5_......f...
   19ae4:	ffe2cd15 fff0aaba 000270ec 00034ef5     .........p...N..
   19af4:	000031b5 ffff6e52 ffffdca5 00001192     .1..Rn..........
   19b04:	ffea9904 ffefc607 0000d3b5 00032897     .............(..
   19b14:	0000761d ffff8272 ffffd40c 00000d4e     .v..r.......N...
   19b24:	fff2aef2 ffefa99e ffff4fdd 0002e262     .........O..b...
   19b34:	0000afb6 ffff9a4f ffffce0c 000008d0     ....O...........
   19b44:	fffaae6b fff045fe fffdf412 00028207     k....E..........
   19b54:	0000dcea ffffb493 ffffcaaf 00000450     ............P...
   19b64:	00024002 fff184ee fffccc14 00020dde     .@..............
   19b74:	0000fccc ffffcfeb ffffc9e5 ffffffff     ................
   19b84:	0009185f fff34b04 fffbe066 00018c92     _....K..f.......
   19b94:	00010f18 ffffeb12 ffffcb80 fffffc07     ................
   19ba4:	000efa7b fff5793f fffb363d 000104d4     {...?y..=6......
   19bb4:	00011423 000004e1 ffffcf3c fffff88f     #.......<.......
   19bc4:	0013b919 fff7eeaf fffacf88 00007d0d     .............}..
   19bd4:	00010cce 00001c57 ffffd4c4 fffff5b1     ....W...........
   19be4:	0017376d fffa8a0b fffaab22 fffffb1f     m7......".......
   19bf4:	0000fa70 000030a3 ffffdbb5 fffff382     p....0..........
   19c04:	001968fa fffd2b26 fffac51f ffff842f     .h..&+....../...
   19c14:	0000debe 00004127 ffffe3a5 fffff20a     ....'A..........
   19c24:	001a50c9 ffffb440 fffb1731 ffff1c7a     .P..@...1...z...
   19c34:	0000bbb1 00004d7c ffffec26 fffff14b     ....|M..&...K...
   19c44:	0019fff8 00020b18 fffb9923 fffec73d     ........#...=...
   19c54:	00009367 00005572 fffff4d0 fffff13e     g...rU......>...
   19c64:	001893d3 000419ce fffc415a fffe86a3     ........ZA......
   19c74:	0000680f 0000590c fffffd40 fffff1d6     .h...Y..@.......
   19c84:	0016338d 0005cf6d fffd055d fffe5bc3     .3..m...]....[..
   19c94:	00003bc9 00005880 0000051b fffff2fd     .;...X..........
   19ca4:	00130dbb 00072049 fffdda5e fffe46af     ....I ..^....F..
   19cb4:	00001093 0000542a 00000c18 fffff49d     ....*T..........
   19cc4:	000f55af 0008060a fffeb5b4 fffe4683     .U...........F..
   19cd4:	ffffe837 00004c8a 000011fd fffff698     7....L..........
   19ce4:	000b40de 00087f89 ffff8d54 fffe5987     .@......T....Y..
   19cf4:	ffffc438 0000423a 0000169e fffff8d2     8...:B..........
   19d04:	0007045c 00089068 0000582d fffe7d53     \...h...-X..S}..
   19d14:	ffffa5c8 000035e5 000019e3 fffffb2c     .....5......,...
   19d24:	0002d298 00084088 00010e7f fffeaef8     .....@..........
   19d34:	ffff8dc5 0000283e 00001bc4 fffffd8b     ....>(..........
   19d44:	fffed965 00079b59 0001aa0f fffeeb2a     e...Y.......*...
   19d54:	ffff7cb1 000019f8 00001c49 ffffffd3     .|......I.......
   19d64:	fffb4056 0006af0c 00022650 ffff2e6d     V@......P&..m...
   19d74:	ffff72b8 00000bbe 00001b8a 000001ec     .r..............
   19d84:	fff82796 00058bbf 0002806f ffff7541     .'......o...Au..
   19d94:	ffff6fb3 fffffe2f 000019a9 000003c4     .o../...........
   19da4:	fff5a713 000442a1 0002b751 ffffbc48     .....B..Q...H...
   19db4:	ffff7331 fffff1d1 000016d3 0000054c     1s..........L...
   19dc4:	fff3ce27 0002e51a 0002cb7b 00000068     '.......{...h...
   19dd4:	ffff7c82 ffffe715 0000133c 00000679     .|......<...y...
   19de4:	fff2a3a2 00018407 0002bee6 00003eeb     .............>..
   19df4:	ffff8ac4 ffffde4f 00000f1a 00000745     ....O.......E...
   19e04:	fff22630 00002f0a 000294d0 00007590     0&.../.......u..
   19e14:	ffff9cf1 ffffd7b9 00000aa8 000007b0     ................
   19e24:	fff24d14 fffef3f6 00025178 0000a29c     .M......xQ......
   19e34:	ffffb1ec ffffd36c 0000061d 000007bd     ....l...........
   19e44:	fff30926 fffdde59 0001f9e0 0000c4e5     &...Y...........
   19e54:	ffffc891 ffffd168 000001ad 00000773     ....h.......s...
   19e64:	fff44600 fffcf731 0001937d 0000dbd1     .F..1...}.......
   19e74:	ffffdfc2 ffffd195 fffffd8a 000006dc     ................
   19e84:	fff5eb51 fffc44b8 000123fa 0000e750     Q....D...#..P...
   19e94:	fffff672 ffffd3c2 fffff9d7 00000606     r...............
   19ea4:	fff7de3d fffbca5c 0000b0ed 0000e7d1     =...\...........
   19eb4:	00000bae ffffd7ac fffff6b7 000004fe     ................
   19ec4:	fffa02bc fffb88d4 00003fa0 0000de37     .........?..7...
   19ed4:	00001eab ffffdd04 fffff440 000003d4     ........@.......
   19ee4:	fffc3ced fffb7e51 ffffd4da 0000cbc1     .<..Q~..........
   19ef4:	00002ec4 ffffe370 fffff27f 00000299     ....p...........
   19f04:	fffe7246 fffba6c3 ffff74b4 0000b1f6     Fr.......t......
   19f14:	00003b83 ffffea93 fffff178 0000015a     .;......x...Z...
   19f24:	00008a9e fffbfc3d ffff227b 0000928e     ....=...{"......
   19f34:	000044a2 fffff20e fffff129 00000027     .D......)...'...
   19f44:	0002710e fffc7757 fffee09e 00006f5d     .q..Ww......]o..
   19f54:	00004a06 fffff987 fffff185 ffffff0c     .J..............
   19f64:	0004148b fffd0fa4 fffeb0a1 00004a38     ............8J..
   19f74:	00004bc2 000000a9 fffff27a fffffe12     .K......z.......
   19f84:	0005685b fffdbc22 fffe9322 000024e6     [h.."..."....$..
   19f94:	00004a10 00000730 fffff3f2 fffffd41     .J..0.......A...
   19fa4:	00066443 fffe73ae fffe87e5 00000109     Cd...s..........
   19fb4:	0000454b 00000cdd fffff5d0 fffffca1     KE..............
   19fc4:	00070486 ffff2d66 fffe8de7 ffffe013     ....f-..........
   19fd4:	00003de8 00001185 fffff7f9 fffffc33     .=..........3...
   19fe4:	000749b1 ffffe10e fffea37d ffffc331     .I......}...1...
   19ff4:	0000346f 00001508 fffffa4d fffffbf8     o4......M.......
   1a004:	00073838 00008757 fffec66f ffffab51     88..W...o...Q...
   1a014:	00002978 00001757 fffffcb0 fffffbef     x)..W...........
   1a024:	0006d7f5 00011a23 fffef421 ffff9914     ....#...!.......
   1a034:	00001d99 00001873 ffffff05 fffffc14     ....s...........
   1a044:	00063389 000194ac ffff29b5 ffff8ccc     .3.......)......
   1a054:	0000116b 00001868 00000134 fffffc62     k...h...4...b...
   1a064:	000557ad 0001f39b ffff6433 ffff8686     .W......3d......
   1a074:	0000057a 0000174f 00000328 fffffcd1     z...O...(.......
   1a084:	00045274 00023516 ffffa0aa ffff860a     tR...5..........
   1a094:	fffffa48 0000154a 000004d0 fffffd5a     H...J.......Z...
   1a0a4:	00033299 000258ad ffffdc50 ffff8ae3     .2...X..P.......
   1a0b4:	fffff040 00001282 00000620 fffffdf6     @....... .......
   1a0c4:	000206c8 00025f49 0000149f ffff946b     ....I_......k...
   1a0d4:	ffffe7b9 00000f27 00000710 fffffe9c     ....'...........
   1a0e4:	0000dcff 00024afe 0000476e ffffa1d7     .....J..nG......
   1a0f4:	ffffe0f3 00000b6b 0000079e ffffff43     ....k.......C...
   1a104:	ffffc200 00021ee4 000072fa ffffb240     .........r..@...
   1a114:	ffffdc14 0000077e 000007cc ffffffe5     ....~...........
   1a124:	fffec0dc 0001ded7 000095f7 ffffc4b0     ................
   1a134:	ffffd92a 00000390 0000079f 0000007a     *...........z...
   1a144:	fffde29f 00018f40 0000af95 ffffd831     ....@.......1...
   1a154:	ffffd82d ffffffcd 00000722 000000fe     -.......".......
   1a164:	fffd2e12 000134db 0000bf7a ffffebd3     .....4..z.......
   1a174:	ffffd8ff fffffc5b 0000065f 0000016d     ....[..._...m...
   1a184:	fffca7a0 0000d475 0000c5c4 fffffeba     ....u...........
   1a194:	ffffdb71 fffff95a 00000566 000001c2     q...Z...f.......
   1a1a4:	fffc5159 000072bb 0000c2f4 00001021     YQ...r......!...
   1a1b4:	ffffdf46 fffff6e2 00000445 000001fd     F.......E.......
   1a1c4:	3a434347 4e472820 38202955 302e322e     GCC: (GNU) 8.2.0
   1a1d4:	00000000                                ....

0001a1d8 <heap_memory_used>:
   1a1d8:	00000000                                ....

0001a1dc <heap_memory>:
	...
